	.text
	.file	"LLVMDialectModule"
	.globl	stencil_2d5pt                   # -- Begin function stencil_2d5pt
	.p2align	4, 0x90
	.type	stencil_2d5pt,@function
stencil_2d5pt:                          # @stencil_2d5pt
.Lfunc_begin0:
	.file	1 "/home/jzh/mlir_stencil/SWStenDSL/examples/2d5pt_star" "2d5pt_llvm.mlir"
	.loc	1 4 0                           # 2d5pt_llvm.mlir:4:0
	.cfi_startproc
# %bb.0:
	pushq	%rbp
	.cfi_def_cfa_offset 16
	pushq	%r15
	.cfi_def_cfa_offset 24
	pushq	%r14
	.cfi_def_cfa_offset 32
	pushq	%r13
	.cfi_def_cfa_offset 40
	pushq	%r12
	.cfi_def_cfa_offset 48
	pushq	%rbx
	.cfi_def_cfa_offset 56
	subq	$248, %rsp
	.cfi_def_cfa_offset 304
	.cfi_offset %rbx, -56
	.cfi_offset %r12, -48
	.cfi_offset %r13, -40
	.cfi_offset %r14, -32
	.cfi_offset %r15, -24
	.cfi_offset %rbp, -16
	movq	%r9, (%rsp)                     # 8-byte Spill
	movq	%r8, %r13
	movq	%rcx, %rbp
	movq	%rdx, %r15
	movq	%rsi, %r14
	movq	%rdi, %r12
.Ltmp0:
	.loc	1 26 11 prologue_end            # 2d5pt_llvm.mlir:26:11
	movl	$stencil_2d5pt_kernel_gpubin_cst, %edi
	callq	mgpuModuleLoad@PLT
	movq	%rax, 16(%rsp)                  # 8-byte Spill
	.loc	1 29 11                         # 2d5pt_llvm.mlir:29:11
	movl	$stencil_2d5pt_kernel_stencil_2d5pt_kernel_kernel_name, %esi
	movq	%rax, %rdi
	callq	mgpuModuleGetFunction@PLT
	movq	%rax, 8(%rsp)                   # 8-byte Spill
	.loc	1 31 11                         # 2d5pt_llvm.mlir:31:11
	callq	mgpuStreamCreate@PLT
	movq	%rax, %rbx
	.loc	1 51 5                          # 2d5pt_llvm.mlir:51:5
	movq	%r12, 24(%rsp)
	leaq	24(%rsp), %rax
	.loc	1 54 5                          # 2d5pt_llvm.mlir:54:5
	movq	%rax, 136(%rsp)
	.loc	1 55 11                         # 2d5pt_llvm.mlir:55:11
	leaq	32(%rsp), %rax
	.loc	1 56 5                          # 2d5pt_llvm.mlir:56:5
	movq	%r14, 32(%rsp)
	.loc	1 59 5                          # 2d5pt_llvm.mlir:59:5
	movq	%rax, 144(%rsp)
	.loc	1 61 11                         # 2d5pt_llvm.mlir:61:11
	leaq	40(%rsp), %rax
	.loc	1 62 5                          # 2d5pt_llvm.mlir:62:5
	movq	%r15, 40(%rsp)
	.loc	1 65 5                          # 2d5pt_llvm.mlir:65:5
	movq	%rax, 152(%rsp)
	.loc	1 67 11                         # 2d5pt_llvm.mlir:67:11
	leaq	48(%rsp), %rax
	.loc	1 68 5                          # 2d5pt_llvm.mlir:68:5
	movq	%rbp, 48(%rsp)
	.loc	1 71 5                          # 2d5pt_llvm.mlir:71:5
	movq	%rax, 160(%rsp)
	.loc	1 73 11                         # 2d5pt_llvm.mlir:73:11
	leaq	56(%rsp), %rax
	.loc	1 74 5                          # 2d5pt_llvm.mlir:74:5
	movq	%r13, 56(%rsp)
	.loc	1 77 5                          # 2d5pt_llvm.mlir:77:5
	movq	%rax, 168(%rsp)
	.loc	1 79 11                         # 2d5pt_llvm.mlir:79:11
	leaq	64(%rsp), %rax
	movq	(%rsp), %rcx                    # 8-byte Reload
	.loc	1 80 5                          # 2d5pt_llvm.mlir:80:5
	movq	%rcx, 64(%rsp)
	.loc	1 83 5                          # 2d5pt_llvm.mlir:83:5
	movq	%rax, 176(%rsp)
	.loc	1 85 11                         # 2d5pt_llvm.mlir:85:11
	leaq	72(%rsp), %rax
	.loc	1 86 5                          # 2d5pt_llvm.mlir:86:5
	movq	304(%rsp), %rcx
	movq	%rcx, 72(%rsp)
	.loc	1 89 5                          # 2d5pt_llvm.mlir:89:5
	movq	%rax, 184(%rsp)
	.loc	1 91 11                         # 2d5pt_llvm.mlir:91:11
	leaq	80(%rsp), %rax
	.loc	1 92 5                          # 2d5pt_llvm.mlir:92:5
	movq	312(%rsp), %rcx
	movq	%rcx, 80(%rsp)
	.loc	1 95 5                          # 2d5pt_llvm.mlir:95:5
	movq	%rax, 192(%rsp)
	.loc	1 97 11                         # 2d5pt_llvm.mlir:97:11
	leaq	88(%rsp), %rax
	.loc	1 98 5                          # 2d5pt_llvm.mlir:98:5
	movq	320(%rsp), %rcx
	movq	%rcx, 88(%rsp)
	.loc	1 101 5                         # 2d5pt_llvm.mlir:101:5
	movq	%rax, 200(%rsp)
	.loc	1 103 11                        # 2d5pt_llvm.mlir:103:11
	leaq	96(%rsp), %rax
	.loc	1 104 5                         # 2d5pt_llvm.mlir:104:5
	movq	328(%rsp), %rcx
	movq	%rcx, 96(%rsp)
	.loc	1 107 5                         # 2d5pt_llvm.mlir:107:5
	movq	%rax, 208(%rsp)
	.loc	1 109 11                        # 2d5pt_llvm.mlir:109:11
	leaq	104(%rsp), %rax
	.loc	1 110 5                         # 2d5pt_llvm.mlir:110:5
	movq	336(%rsp), %rcx
	movq	%rcx, 104(%rsp)
	.loc	1 113 5                         # 2d5pt_llvm.mlir:113:5
	movq	%rax, 216(%rsp)
	.loc	1 115 11                        # 2d5pt_llvm.mlir:115:11
	leaq	112(%rsp), %rax
	.loc	1 116 5                         # 2d5pt_llvm.mlir:116:5
	movq	344(%rsp), %rcx
	movq	%rcx, 112(%rsp)
	.loc	1 119 5                         # 2d5pt_llvm.mlir:119:5
	movq	%rax, 224(%rsp)
	.loc	1 121 11                        # 2d5pt_llvm.mlir:121:11
	leaq	120(%rsp), %rax
	.loc	1 122 5                         # 2d5pt_llvm.mlir:122:5
	movq	352(%rsp), %rcx
	movq	%rcx, 120(%rsp)
	.loc	1 125 5                         # 2d5pt_llvm.mlir:125:5
	movq	%rax, 232(%rsp)
	.loc	1 127 11                        # 2d5pt_llvm.mlir:127:11
	leaq	128(%rsp), %rax
	.loc	1 128 5                         # 2d5pt_llvm.mlir:128:5
	movq	360(%rsp), %rcx
	movq	%rcx, 128(%rsp)
	.loc	1 131 5                         # 2d5pt_llvm.mlir:131:5
	movq	%rax, 240(%rsp)
	.loc	1 133 12                        # 2d5pt_llvm.mlir:133:12
	subq	$8, %rsp
	.cfi_adjust_cfa_offset 8
	leaq	144(%rsp), %rax
	movl	$1, %esi
	movl	$32, %edx
	movl	$32, %ecx
	movl	$1, %r8d
	movl	$16, %r9d
	movq	16(%rsp), %rdi                  # 8-byte Reload
	pushq	$0
	.cfi_adjust_cfa_offset 8
	pushq	%rax
	.cfi_adjust_cfa_offset 8
	pushq	%rbx
	.cfi_adjust_cfa_offset 8
	pushq	$0
	.cfi_adjust_cfa_offset 8
	pushq	$16
	.cfi_adjust_cfa_offset 8
	callq	mgpuLaunchKernel@PLT
	addq	$48, %rsp
	.cfi_adjust_cfa_offset -48
	.loc	1 134 12                        # 2d5pt_llvm.mlir:134:12
	movq	%rbx, %rdi
	callq	mgpuStreamSynchronize@PLT
	.loc	1 135 12                        # 2d5pt_llvm.mlir:135:12
	movq	%rbx, %rdi
	callq	mgpuStreamDestroy@PLT
	movq	16(%rsp), %rdi                  # 8-byte Reload
	.loc	1 136 12                        # 2d5pt_llvm.mlir:136:12
	callq	mgpuModuleUnload@PLT
	.loc	1 137 5                         # 2d5pt_llvm.mlir:137:5
	addq	$248, %rsp
	.cfi_def_cfa_offset 56
	popq	%rbx
	.cfi_def_cfa_offset 48
	popq	%r12
	.cfi_def_cfa_offset 40
	popq	%r13
	.cfi_def_cfa_offset 32
	popq	%r14
	.cfi_def_cfa_offset 24
	popq	%r15
	.cfi_def_cfa_offset 16
	popq	%rbp
	.cfi_def_cfa_offset 8
	retq
.Ltmp1:
.Lfunc_end0:
	.size	stencil_2d5pt, .Lfunc_end0-stencil_2d5pt
	.cfi_endproc
                                        # -- End function
	.globl	_mlir_ciface_stencil_2d5pt      # -- Begin function _mlir_ciface_stencil_2d5pt
	.p2align	4, 0x90
	.type	_mlir_ciface_stencil_2d5pt,@function
_mlir_ciface_stencil_2d5pt:             # @_mlir_ciface_stencil_2d5pt
.Lfunc_begin1:
	.loc	1 139 0                         # 2d5pt_llvm.mlir:139:0
	.cfi_startproc
# %bb.0:
	pushq	%rax
	.cfi_def_cfa_offset 16
	movq	%rsi, %rax
	movq	%rdi, %r10
.Ltmp2:
	.loc	1 140 10 prologue_end           # 2d5pt_llvm.mlir:140:10
	movq	40(%rdi), %r9
	movq	32(%rdi), %r8
	movq	24(%rdi), %rcx
	movq	16(%rdi), %rdx
	movq	(%rdi), %rdi
	movq	8(%r10), %rsi
	.loc	1 156 5                         # 2d5pt_llvm.mlir:156:5
	pushq	48(%rax)
	.cfi_adjust_cfa_offset 8
	pushq	40(%rax)
	.cfi_adjust_cfa_offset 8
	pushq	32(%rax)
	.cfi_adjust_cfa_offset 8
	pushq	24(%rax)
	.cfi_adjust_cfa_offset 8
	pushq	16(%rax)
	.cfi_adjust_cfa_offset 8
	pushq	8(%rax)
	.cfi_adjust_cfa_offset 8
	pushq	(%rax)
	.cfi_adjust_cfa_offset 8
	pushq	48(%r10)
	.cfi_adjust_cfa_offset 8
	callq	stencil_2d5pt@PLT
	addq	$64, %rsp
	.cfi_adjust_cfa_offset -64
	.loc	1 157 5                         # 2d5pt_llvm.mlir:157:5
	popq	%rax
	.cfi_def_cfa_offset 8
	retq
.Ltmp3:
.Lfunc_end1:
	.size	_mlir_ciface_stencil_2d5pt, .Lfunc_end1-_mlir_ciface_stencil_2d5pt
	.cfi_endproc
                                        # -- End function
	.globl	stencil_2d5pt_iteration         # -- Begin function stencil_2d5pt_iteration
	.p2align	4, 0x90
	.type	stencil_2d5pt_iteration,@function
stencil_2d5pt_iteration:                # @stencil_2d5pt_iteration
.Lfunc_begin2:
	.loc	1 159 0                         # 2d5pt_llvm.mlir:159:0
	.cfi_startproc
# %bb.0:
	pushq	%rbp
	.cfi_def_cfa_offset 16
	pushq	%r15
	.cfi_def_cfa_offset 24
	pushq	%r14
	.cfi_def_cfa_offset 32
	pushq	%r13
	.cfi_def_cfa_offset 40
	pushq	%r12
	.cfi_def_cfa_offset 48
	pushq	%rbx
	.cfi_def_cfa_offset 56
	subq	$56, %rsp
	.cfi_def_cfa_offset 112
	.cfi_offset %rbx, -56
	.cfi_offset %r12, -48
	.cfi_offset %r13, -40
	.cfi_offset %r14, -32
	.cfi_offset %r15, -24
	.cfi_offset %rbp, -16
	movq	%r9, 40(%rsp)                   # 8-byte Spill
	movq	%r8, 32(%rsp)                   # 8-byte Spill
	movq	%rcx, 24(%rsp)                  # 8-byte Spill
	movq	%rdx, 16(%rsp)                  # 8-byte Spill
	movq	%rsi, 8(%rsp)                   # 8-byte Spill
	movq	%rdi, (%rsp)                    # 8-byte Spill
	xorl	%eax, %eax
	movq	8(%rsp), %rbp                   # 8-byte Reload
	movq	16(%rsp), %rbx                  # 8-byte Reload
	movq	24(%rsp), %r13                  # 8-byte Reload
	movq	32(%rsp), %r12                  # 8-byte Reload
	movq	40(%rsp), %r15                  # 8-byte Reload
.Ltmp4:
	.loc	1 180 11 prologue_end           # 2d5pt_llvm.mlir:180:11
	cmpq	$9, %rax
	.loc	1 181 5                         # 2d5pt_llvm.mlir:181:5
	jg	.LBB2_3
	.p2align	4, 0x90
.LBB2_2:                                # =>This Inner Loop Header: Depth=1
	.loc	1 0 5 is_stmt 0                 # 2d5pt_llvm.mlir:0:5
	movq	(%rsp), %rdi                    # 8-byte Reload
	.loc	1 197 5 is_stmt 1               # 2d5pt_llvm.mlir:197:5
	movq	%rbp, %rsi
	movq	%rbx, %rdx
	movq	%r13, %rcx
	movq	%r12, %r8
	movq	%r15, %r9
	movq	%rax, 48(%rsp)                  # 8-byte Spill
	movq	168(%rsp), %rax
	pushq	%rax
	.cfi_adjust_cfa_offset 8
	movq	168(%rsp), %rax
	pushq	%rax
	.cfi_adjust_cfa_offset 8
	movq	168(%rsp), %rax
	pushq	%rax
	.cfi_adjust_cfa_offset 8
	movq	168(%rsp), %rax
	pushq	%rax
	.cfi_adjust_cfa_offset 8
	movq	168(%rsp), %rax
	pushq	%rax
	.cfi_adjust_cfa_offset 8
	movq	168(%rsp), %rax
	pushq	%rax
	.cfi_adjust_cfa_offset 8
	movq	168(%rsp), %r14
	pushq	%r14
	.cfi_adjust_cfa_offset 8
	movq	168(%rsp), %rax
	pushq	%rax
	.cfi_adjust_cfa_offset 8
	callq	stencil_2d5pt@PLT
	addq	$64, %rsp
	.cfi_adjust_cfa_offset -64
	.loc	1 198 5                         # 2d5pt_llvm.mlir:198:5
	movq	%r14, %rdi
	movq	128(%rsp), %rsi
	movq	136(%rsp), %rdx
	movq	144(%rsp), %rcx
	movq	152(%rsp), %r8
	movq	160(%rsp), %r9
	pushq	112(%rsp)
	.cfi_adjust_cfa_offset 8
	pushq	%r15
	.cfi_adjust_cfa_offset 8
	pushq	%r12
	.cfi_adjust_cfa_offset 8
	pushq	%r13
	.cfi_adjust_cfa_offset 8
	pushq	%rbx
	.cfi_adjust_cfa_offset 8
	pushq	%rbp
	.cfi_adjust_cfa_offset 8
	pushq	48(%rsp)                        # 8-byte Folded Reload
	.cfi_adjust_cfa_offset 8
	pushq	224(%rsp)
	.cfi_adjust_cfa_offset 8
	callq	stencil_2d5pt@PLT
	movq	112(%rsp), %rax                 # 8-byte Reload
	addq	$64, %rsp
	.cfi_adjust_cfa_offset -64
	.loc	1 199 11                        # 2d5pt_llvm.mlir:199:11
	incq	%rax
	.loc	1 180 11                        # 2d5pt_llvm.mlir:180:11
	cmpq	$9, %rax
	.loc	1 181 5                         # 2d5pt_llvm.mlir:181:5
	jle	.LBB2_2
.LBB2_3:
	.loc	1 202 5                         # 2d5pt_llvm.mlir:202:5
	addq	$56, %rsp
	.cfi_def_cfa_offset 56
	popq	%rbx
	.cfi_def_cfa_offset 48
	popq	%r12
	.cfi_def_cfa_offset 40
	popq	%r13
	.cfi_def_cfa_offset 32
	popq	%r14
	.cfi_def_cfa_offset 24
	popq	%r15
	.cfi_def_cfa_offset 16
	popq	%rbp
	.cfi_def_cfa_offset 8
	retq
.Ltmp5:
.Lfunc_end2:
	.size	stencil_2d5pt_iteration, .Lfunc_end2-stencil_2d5pt_iteration
	.cfi_endproc
                                        # -- End function
	.globl	_mlir_ciface_stencil_2d5pt_iteration # -- Begin function _mlir_ciface_stencil_2d5pt_iteration
	.p2align	4, 0x90
	.type	_mlir_ciface_stencil_2d5pt_iteration,@function
_mlir_ciface_stencil_2d5pt_iteration:   # @_mlir_ciface_stencil_2d5pt_iteration
.Lfunc_begin3:
	.loc	1 204 0                         # 2d5pt_llvm.mlir:204:0
	.cfi_startproc
# %bb.0:
	pushq	%rax
	.cfi_def_cfa_offset 16
	movq	%rsi, %rax
	movq	%rdi, %r10
.Ltmp6:
	.loc	1 205 10 prologue_end           # 2d5pt_llvm.mlir:205:10
	movq	40(%rdi), %r9
	movq	32(%rdi), %r8
	movq	24(%rdi), %rcx
	movq	16(%rdi), %rdx
	movq	(%rdi), %rdi
	movq	8(%r10), %rsi
	.loc	1 221 5                         # 2d5pt_llvm.mlir:221:5
	pushq	48(%rax)
	.cfi_adjust_cfa_offset 8
	pushq	40(%rax)
	.cfi_adjust_cfa_offset 8
	pushq	32(%rax)
	.cfi_adjust_cfa_offset 8
	pushq	24(%rax)
	.cfi_adjust_cfa_offset 8
	pushq	16(%rax)
	.cfi_adjust_cfa_offset 8
	pushq	8(%rax)
	.cfi_adjust_cfa_offset 8
	pushq	(%rax)
	.cfi_adjust_cfa_offset 8
	pushq	48(%r10)
	.cfi_adjust_cfa_offset 8
	callq	stencil_2d5pt_iteration@PLT
	addq	$64, %rsp
	.cfi_adjust_cfa_offset -64
	.loc	1 222 5                         # 2d5pt_llvm.mlir:222:5
	popq	%rax
	.cfi_def_cfa_offset 8
	retq
.Ltmp7:
.Lfunc_end3:
	.size	_mlir_ciface_stencil_2d5pt_iteration, .Lfunc_end3-_mlir_ciface_stencil_2d5pt_iteration
	.cfi_endproc
                                        # -- End function
	.type	stencil_2d5pt_kernel_stencil_2d5pt_kernel_kernel_name,@object # @stencil_2d5pt_kernel_stencil_2d5pt_kernel_kernel_name
	.section	.rodata,"a",@progbits
	.p2align	4
stencil_2d5pt_kernel_stencil_2d5pt_kernel_kernel_name:
	.asciz	"stencil_2d5pt_kernel"
	.size	stencil_2d5pt_kernel_stencil_2d5pt_kernel_kernel_name, 21

	.type	stencil_2d5pt_kernel_gpubin_cst,@object # @stencil_2d5pt_kernel_gpubin_cst
	.p2align	4
stencil_2d5pt_kernel_gpubin_cst:
	.asciz	"\177ELF\002\001\0013\007\000\000\000\000\000\000\000\002\000\276\000u\000\000\000\000\000\000\000\000\000\000\000\000\000\000\000\000\000\000\000\000\034\000\000\000\000\000\000F\005#\000@\000\000\000\000\000@\000\016\000\001\000\000.shstrtab\000.strtab\000.symtab\000.symtab_shndx\000.nv.info\000.text.stencil_2d5pt_kernel\000.nv.info.stencil_2d5pt_kernel\000.nv.shared.stencil_2d5pt_kernel\000.nv.constant2.stencil_2d5pt_kernel\000.nv.constant0.stencil_2d5pt_kernel\000.rel.nv.constant0.stencil_2d5pt_kernel\000.debug_frame\000.rel.text.stencil_2d5pt_kernel\000.rela.text.stencil_2d5pt_kernel\000.rel.debug_frame\000.rela.debug_frame\000.nv.callgraph\000.nv.prototype\000.nv.rel.action\000\000.shstrtab\000.strtab\000.symtab\000.symtab_shndx\000.nv.info\000stencil_2d5pt_kernel\000.text.stencil_2d5pt_kernel\000.nv.info.stencil_2d5pt_kernel\000.nv.shared.stencil_2d5pt_kernel\000$____wg_stencil_2d5pt_kernel_1__37\000.nv.constant2.stencil_2d5pt_kernel\000stencil_2d5pt_kernel.const2.0.8\000stencil_2d5pt_kernel.const2.8.16\000stencil_2d5pt_kernel.const2.16.24\000stencil_2d5pt_kernel.const2.24.32\000$____wg_stencil_2d5pt_kernel_0__35\000.rel.nv.constant0.stencil_2d5pt_kernel\000.nv.constant0.stencil_2d5pt_kernel\000_param\000.debug_frame\000.rel.text.stencil_2d5pt_kernel\000.rela.text.stencil_2d5pt_kernel\000.rel.debug_frame\000.rela.debug_frame\000.nv.callgraph\000.nv.prototype\000.nv.rel.action\000\000\000\000\000\000\000\000\000\000\000\000\000\000\000\000\000\000\000\000\000\000\000\000\000\000\000\000\000\000G\000\000\000\003\000\f\000\000\000\000\000\000\000\000\000\000\000\000\000\000\000\000\000\200\000\000\000\003\000\r\000\000\000\000\000\000\000\000\000\000\000\000\000\000\000\000\000\303\000\000\000\003\000\n\000\000\000\000\000\000\000\000\000\000\000\000\000\000\000\000\000\265\001\000\000\003\000\013\000\000\000\000\000\000\000\000\000\000\000\000\000\000\000\000\000\337\001\000\000\003\000\004\000\000\000\000\000\000\000\000\000\000\000\000\000\000\000\000\000N\002\000\000\003\000\007\000\000\000\000\000\000\000\000\000\000\000\000\000\000\000\000\000j\002\000\000\003\000\b\000\000\000\000\000\000\000\000\000\000\000\000\000\000\000\000\0002\000\000\000\022\020\f\000\000\000\000\000\000\000\000\000\000\022\000\000\000\000\000\000\377\377\377\377(\000\000\000\000\000\000\000\377\377\377\377\377\377\377\377\003\000\004|\377\377\377\377\017\f\201\200\200(\000\b\377\201\200(\b\201\200\200(\000\000\000\000\000\000\000\377\377\377\3770\000\000\000\000\000\000\000\000\000\000\000\000\000\000\000\000\000\000\000\000\000\000\000\360\021\000\000\000\000\000\000\004\004\000\000\000\004x\000\000\000\f\201\200\200(\000\004\344\003\000\000\000\000\000\004\021\b\000\b\000\000\000\000\000\000\000\004/\b\000\b\000\000\000)\000\000\000\004\022\b\000\b\000\000\000\000\000\000\000\004\036\004\000\000\000\000\000\001\004\000\000\004\034\b\000\340\001\000\000\200\021\000\000\0041\024\000\020\000\000\000`\002\000\000\200\003\000\000P\004\000\000\300\016\000\000\003\033\377\000\004\027\f\000\000\000\000\000\000\000\000\000\000\360!\000\004\027\f\000\000\000\000\000\001\000\b\000\000\360!\000\004\027\f\000\000\000\000\000\002\000\020\000\000\360!\000\004\027\f\000\000\000\000\000\003\000\030\000\000\360!\000\004\027\f\000\000\000\000\000\004\000 \000\000\360!\000\004\027\f\000\000\000\000\000\005\000(\000\000\360!\000\004\027\f\000\000\000\000\000\006\0000\000\000\360!\000\004\027\f\000\000\000\000\000\007\0008\000\000\360!\000\004\027\f\000\000\000\000\000\b\000@\000\000\360!\000\004\027\f\000\000\000\000\000\t\000H\000\000\360!\000\004\027\f\000\000\000\000\000\n\000P\000\000\360!\000\004\027\f\000\000\000\000\000\013\000X\000\000\360!\000\004\027\f\000\000\000\000\000\f\000`\000\000\360!\000\004\027\f\000\000\000\000\000\r\000h\000\000\360!\000\003\031p\000\004\n\b\000\004\000\000\000`\001p\000\0047\004\000u\000\000\000\0046\004\000\001\000\000\000\000\000\000\000\377\377\377\377\000\000\000\000\376\377\377\377\000\000\000\000\375\377\377\377K\000\000\000\000\000\000\000\000\002\002\b\020\n/\"\000\000\000\b\000\000\000\000\000\000\b\b\000\000\000\000\000\000\020\b\000\000\000\000\000\000\030\b\000\000\000\000\000\000 \b\000\000\000\000\000\000(\b\000\000\000\000\000\0000\b\000\000\000\000\000\0008\b\000\000\000\000\001\000\000\b\000\000\000\000\001\000\b\b\000\000\000\000\001\000\020\b\000\000\000\000\001\000\030\b\000\000\000\000\001\000 \b\000\000\000\000\001\000(\b\000\000\000\000\001\0000\b\000\000\000\000\001\0008\b\000\000\000\000\002\000\000\b\000\000\000\000\002\000\b\b\000\000\000\000\002\000\020\b\000\000\000\000\002\000\030\b\000\000\000\000\002\000 \b\000\000\000\000\002\000(\b\000\000\000\000\002\0000\b\000\000\000\000\002\0008\b\000\000\000\000\000\000\000\024,\000\000\000\t\000\000\f\000\000\000\000H\000\000\000\000\000\000\000\002\000\000\000\b\000\000\000\232\231\231\231\231\231\271?\232\231\231\231\231\231\311?333333\323?\232\231\231\231\231\231\331?\000\000\000\000\000\000\000\000\000\000\000\000\000\000\000\000\000\000\000\000\000\000\000\000\000\000\000\000\000\000\000\000\000\000\000\000\000\000\000\000\000\000\000\000\000\000\000\000\000\000\000\000\000\000\000\000\000\000\000\000\000\000\000\000\000\000\000\000\000\000\000\000\000\000\000\000\000\000\000\000\000\000\000\000\000\000\000\000\000\000\000\000\000\000\000\000\000\000\000\000\000\000\000\000\000\000\000\000\000\000\000\000\000\000\000\000\000\000\000\000\000\000\000\000\000\000\000\000\000\000\000\000\000\000\000\000\000\000\000\000\000\000\000\000\000\000\000\000\000\000\000\000\000\000\000\000\000\000\000\000\000\000\000\000\000\000\000\000\000\000\000\000\000\000\000\000\000\000\000\000\000\000\000\000\000\000\000\000\000\000\000\000\000\000\000\000\000\000\000\000\000\000\000\000\000\000\000\000\000\000\000\000\000\000\000\000\000\000\000\000\000\000\000\000\000\000\000\000\000\000\000\000\000\000\000\000\000\000\000\000\000\000\000\000\000\000\000\000\000\000\000\000\000\000\000\000\000\000\000\000\000\000\000\000\000\000\000\000\000\000\000\000\000\000\000\000\000\000\000\000\000\000\000\000\000\000\000\000\000\000\000\000\000\000\000\000\000\000\000\000\000\000\000\000\000\000\000\000\000\000\000\000\000\000\000\000\000\000\000\000\000\000\000\000\000\000\000\000\000\000\000\000\000\000\000\000\000\000\000\000\000\000\000\000\000\000\000\000\000\000\000\000\000\000\000\000\000\000\000\000\000\000\000\000\000\000\000\000\000\000\000\000\000\000\000\000\000\000\000\000\000\000\000\000\000\000\000\000\000\000\000\000\000\000\000\000\000\000\000\000\000\000\000\000\000\000\000\000\000\000\000\000\000\000\000\000\000\000\000\000\000\000\000\000\000\000\000\000\000\000\000\000\000\000\000\000\000\000\000\000\000\000\000\000\000\000\000\000\000\000\000\000\000\000\000\000\000\000\000\000\000\000\000\000\000\000\000\000\000\000\000\000\000\000\000\000\000\000\000\000\000\000\000\000\000\000\000\000\002z\001\000\000\n\000\000\000\017\000\000\000\304\017\000\211\363\377\377\377\000\000\000\377\000\016\000\000\342\017\000\031y\022\000\000\000\000\000\000#\000\000\000(\016\000\031y\005\000\000\000\000\000\000'\000\000\000h\016\000\031y\t\000\000\000\000\000\000&\000\000\000\250\016\000\031y\000\000\000\000\000\000\000\"\000\000\000\342\016\000%x\002\022\002 \000\000\377\002\216\007\000\342\037\000\031x\023\377\037\000\000\000\022\024\001\000\000\312\017\000%x\002\005\000\002 \000\002\002\216\007\000\310/\000%x\004\005\000\001\000\000\022\002\216\007\000\310\017\000%x\006\t\000\001\000\000\002\002\216\007\000\342O\000\020x\b\004\001\000\000\000\377\340\361\007\000\344\017\004\020x\003\004\001\001\000\000\377\340\363\007\000\344\017\000\020r\f\006\000\000\000\000\377\340\365\007\000\342\217\000$r\r\377\377\000\000\000\005\006\016\000\000\342\017\020\fr\000\b\003\000\000\000p`\360\003\000\342\017\000$r\004\377\377\000\000\000\005\006\216\000\000\342\017\000\031x\002\377\037\000\000\000\000\024\001\000\000\342\017\000$x\n\f\b\000\000\000\377\000\216\007\000\342\017\000\031x\006\377\037\000\000\000\t\024\001\000\000\304\017\000\fr\000\r\004\000\000\000\000c\360\003\000\342\017\000$x\007\007\001\000\000\000\002\006\016\001\000\342\017\000\020z\013\n\000h\000\000\377\340\363\007\000\344\017\004\020z\n\n\000Z\000\000\377\340\365\007\000\344\017\000\031x\f\f\003\000\000\000\007\002\001\000\000\344\017\000\021r\005\t\000\000\000\000\377@\210\007\000\344\017\000\020x\013\013\030\000\001\000\377\340\367\007\000\304\017\000\020z\017\f\000[\000\000\377\344\177\001\000\344\017\000\021r\006\t\002\000\000\000\006D\017\002\000\344\017\000\020z\f\377\000i\000\000\f$\376\001\000\342\017\000M\t\000\000\000\000\000\000\000\000\200\003\000\360\017\000\002r\007\000\r\000\000\000\000\017\000\000\000\342\017\000$x\r\022B\000\000\000\000\002\216\007\000\342\017\024\002r\t\000\n\000\000\000\000\017\000\000\000\342\017\000$x\016\022@\000\000\000\000\002\216\007\000\342\017\000\002r\n\000\017\000\000\000\000\017\000\000\000\344\017\000\031x\r\r\003\000\000\000\377\006\000\000\000\304\017\000\031x\016\016\003\000\000\000\377\006\000\000\000\304\017\000\211\363\377\377\377\000\000\000\377\000\016\000\000\342\017\000\020x\036\005\001\000\000\000\377\340\365\007\000\342\017\004Us\377\000\000\000\000\000\000\000\020\000\000\342\017\000\020x\017\005\001\001\000\000\377\340\367\007\000\342\017\000Ey\000\000\200\016\000\000\000\000\200\003\000\342\017\000\020x\b\b \000\000\000\377\340\361\007\000\342\017\000$r\021\377\377\000\000\000\006\006\016\001\000\342\017\020\fr\000\036\017\000\000\000p`\362\003\000\342\017\000$r\020\377\377\000\000\000\006\006\216\001\000\344\017\000$r\007\377\377\000\000\000\007\006\016\000\000\342\017\000\fr\000\b\003\000\000\000p`\360\003\000\304\017\000\fr\000\021\020\000\000\000\020c\362\003\000\344\017\000\fr\000\007\004\000\000\000\000c\360\003\000\324\017\000G\031\000\000\340\r\000\000\000\000\200\003\000\352\037\000$r\037\377\377\000\000\000\013\000\216\007\000\342\017\000\002r!\000\t\000\000\000\000\017\000\000\000\342\017\000$r \377\377\000\000\000\f\000\216\007\000\342\017\000\002r\"\000\n\000\000\000\000\017\000\000\000\304\017\000\211\363\377\377\377\000\000\000\377\000\016\000\000\342\017\000\fx\000\022!\000\000\000p@\364\003\000\344\017\000\020x\036\036@\000\000\000\377\340\363\007\000\344\017\000\fr\000\023\377\000\000\000 C\364\003\000\306\017\000$r\021\377\377\000\000\000\021\006\216\000\000\342\017\000\fr\000\036\017\000\000\000p`\362\003\000\310\017\000\fr\000\021\020\000\000\000\020c\362\003\000\310\017\000G)\000\000P\002\000\000\000\000\200\003\000\352\037\000\002r#\000!\000\000\000\000\017\000\000\000\342\017\000$r\035\377\377\000\000\000\r\000\216\007\000\342\017\000\002r$\000\"\000\000\000\000\017\000\000\000\342\017\000$r\034\377\377\000\000\000\023\000\216\007\000\342\017\000\002r\032\000\022\000\000\000\000\017\000\000\000\304\017\000\211\363\377\377\377\000\000\000\377\000\016\000\000\342\017\000\fx\000\000A\000\000\000p@\366\003\000\342\017\000Us\377\001\000\000\000\000\000\000\020\000\000\342\017\000\020x\032\032\020\000\000\000\377\340\365\007\000\342\017\000Ey\001\000p\001\000\000\000\000\200\003\000\342\017\000\fr\000\002\377\000\000\0000C\366\003\000\306\017\000$r\034\377\377\000\000\000\034\006\016\001\000\342\017\000\fx\000\032!\000\000\000p@\364\003\000\310\017\000\fr\000\034\377\000\000\000 C\364\003\000\310\017\000G9\000\000\020\001\000\000\000\000\200\003\000\352\017\000\002r\030\000#\000\000\000\000\017\000\000\000\342\017\000$r\031\377\377\000\000\000\035\000\216\007\000\342\017\000\002r\033\000$\000\000\000\000\017\000\000\000\342\017\000$r\027\377\377\000\000\000\002\000\216\007\000\342\017\000\002r\026\000\000\000\000\000\000\017\000\000\000\304\017\000$r\024\377\377\000\000\000\030\000\216\007\000\344\017\000$r\025\377\377\000\000\000\033\000\216\007\000\320\017\000\200y\024\024\000\000\000\000\000\353\020\000\000\242\016\000\020x\026\026\020\000\000\000\377\340\367\007\000\344\017\000\020x\030\030\200\000\000\000\377\340\371\007\000\306\017\000$r\027\377\377\000\000\000\027\006\216\001\000\342\017\000\fx\000\026A\000\000\000p@\366\003\000\342\017\000$r\033\377\377\000\000\000\033\006\016\002\000\306\017\000\fr\000\027\377\000\000\0000C\366\003\000\342\017\000\210s\000\031\024\000@\000\000\n\000\000\000\344A\000\020x\031\031\200\000\000\000\377\340\377\007\000\322\037\000G\271\000\000@\377\377\377\377\377\203\003\000\352\017\000Ay\001\000\000\000\000\000\000\000\200\003\000\352\017\000\020x##\000\001\020\000\377\340\367\007\000\344\017\000\020x\035\035\000!\000\000\377\340\377\007\000\306\017\000$r$\377\377\000\000\000$\006\216\001\000\342\017\000G\251\000\000\000\376\377\377\377\377\203\003\000\352\017\000Hy\000\000\377\377\377\377\000\000\200\003\000\350\017\000\030y\000\000\000\000\000\000\000\000\000\000\000\342\017\000\035{\000\000\000\000\000\000\000\000\000\000\000\352\017\000\204y\034\r\000\b@\000\000\032\000\000\000\"\016\000\fx\000\022\037\000\000\000p@\364\003\000\342\017\000Us\377\001\000\000\000\000\000\000\020\000\000\342\017\000Ey\001\000\020\n\000\000\000\000\200\003\000\342\017\000\204y\032\r\000(D\000\000\032\000\000\000b\016\000\fr\000\023\377\000\000\000 C\364\003\000\306\017\000\204y\030\r\000\030B\000\000\032\000\000\000\250\016\000\204y\026\r\000 B\000\000\032\000\000\000\350\016\000\204y\024\r\000\020B\000\000\032\000\000\000\"\017\000(z\034\034\000\000\200\000\000\000\000\000\000\310\037\000(z\032\032\000\002\200\000\000\000\000\000\000\b.\000(z\030\030\000\004\200\000\000\000\000\000\000\310O\000)r\032\034\000\000\000\000\032\000\000\000\000\b\036\000(z\026\026\000\006\200\000\000\000\000\000\000\310\217\000)r\030\032\000\000\000\000\030\000\000\000\000\b\036\000(x\024\024\000\000\340?\000\000\000\000\000\310\017\001)r\026\030\000\000\000\000\026\000\000\000\000\020\036\000)r$\026\000\000\000\000\024\000\000\000\000\022\036\000\210s\000\016$\000\000\000\000\n\000\000\000\350\037\000\204y\034\r\000\210@\000\000\032\000\000\000(\016\000\204y\032\r\000\250D\000\000\032\000\000\000h\016\000\204y\030\r\000\230B\000\000\032\000\000\000\250\016\000\204y\026\r\000\240B\000\000\032\000\000\000\350\016\000\204y\024\r\000\220B\000\000\032\000\000\000\"\017\000(z\034\034\000\000\200\000\000\000\000\000\000\310\037\000(z\032\032\000\002\200\000\000\000\000\000\000\b.\000(z\030\030\000\004\200\000\000\000\000\000\000\310O\000)r\032\034\000\000\000\000\032\000\000\000\000\b\036\000(z\026\026\000\006\200\000\000\000\000\000\000\310\217\000)r\030\032\000\000\000\000\030\000\000\000\000\b\036\000(x\024\024\000\000\340?\000\000\000\000\000\310\017\001)r\026\030\000\000\000\000\026\000\000\000\000\020\036\000)r$\026\000\000\000\000\024\000\000\000\000\022\036\000\210s\000\016$\200\000\000\000\n\000\000\000\350\037\000\204y\034\r\000\bA\000\000\032\000\000\000(\016\000\204y\032\r\000(E\000\000\032\000\000\000h\016\000\204y\030\r\000\030C\000\000\032\000\000\000\250\016\000\204y\026\r\000 C\000\000\032\000\000\000\350\016\000\204y\024\r\000\020C\000\000\032\000\000\000\"\017\000(z\034\034\000\000\200\000\000\000\000\000\000\310\037\000(z\032\032\000\002\200\000\000\000\000\000\000\b.\000(z\030\030\000\004\200\000\000\000\000\000\000\310O\000)r\032\034\000\000\000\000\032\000\000\000\000\b\036\000(z\026\026\000\006\200\000\000\000\000\000\000\310\217\000)r\030\032\000\000\000\000\030\000\000\000\000\b\036\000(x\024\024\000\000\340?\000\000\000\000\000\310\017\001)r\026\030\000\000\000\000\026\000\000\000\000\020\036\000)r$\026\000\000\000\000\024\000\000\000\000\022\036\000\210s\000\016$\000\001\000\000\n\000\000\000\350\037\000\204y\034\r\000\210A\000\000\032\000\000\000(\016\000\204y\032\r\000\250E\000\000\032\000\000\000h\016\000\204y\030\r\000\230C\000\000\032\000\000\000\250\016\000\204y\026\r\000\240C\000\000\032\000\000\000\350\016\000\204y\024\r\000\220C\000\000\032\000\000\000\"\017\000(z\034\034\000\000\200\000\000\000\000\000\000\310\037\000(z\032\032\000\002\200\000\000\000\000\000\000\b.\000(z\030\030\000\004\200\000\000\000\000\000\000\310O\000)r\032\034\000\000\000\000\032\000\000\000\000\b\036\000(z\026\026\000\006\200\000\000\000\000\000\000\310\217\000)r\030\032\000\000\000\000\030\000\000\000\000\b\036\000(x\024\024\000\000\340?\000\000\000\000\000\310\017\001)r\026\030\000\000\000\000\026\000\000\000\000\020\036\000)r$\026\000\000\000\000\024\000\000\000\000\022\036\000\210s\000\016$\200\001\000\000\n\000\000\000\350\037\000\204y\034\r\000\ba\000\000\032\000\000\000(\016\000\204y\032\r\000(e\000\000\032\000\000\000h\016\000\204y\030\r\000\030c\000\000\032\000\000\000\250\016\000\204y\026\r\000 c\000\000\032\000\000\000\350\016\000\204y\024\r\000\020c\000\000\032\000\000\000\"\017\000(z\034\034\000\000\200\000\000\000\000\000\000\310\037\000(z\032\032\000\002\200\000\000\000\000\000\000\b.\000(z\030\030\000\004\200\000\000\000\000\000\000\310O\000)r\032\034\000\000\000\000\032\000\000\000\000\b\036\000(z\026\026\000\006\200\000\000\000\000\000\000\310\217\000)r\030\032\000\000\000\000\030\000\000\000\000\b\036\000(x\024\024\000\000\340?\000\000\000\000\000\310\017\001)r\026\030\000\000\000\000\026\000\000\000\000\020\036\000)r$\026\000\000\000\000\024\000\000\000\000\022\036\000\210s\000\016$\000 \000\000\n\000\000\000\350\037\000\204y\034\r\000\210a\000\000\032\000\000\000(\016\000\204y\032\r\000\250e\000\000\032\000\000\000h\016\000\204y\030\r\000\230c\000\000\032\000\000\000\250\016\000\204y\026\r\000\240c\000\000\032\000\000\000\350\016\000\204y\024\r\000\220c\000\000\032\000\000\000\"\017\000(z\034\034\000\000\200\000\000\000\000\000\000\310\037\000(z\032\032\000\002\200\000\000\000\000\000\000\b.\000(z\030\030\000\004\200\000\000\000\000\000\000\310O\000)r\032\034\000\000\000\000\032\000\000\000\000\b\036\000(z\026\026\000\006\200\000\000\000\000\000\000\310\217\000)r\030\032\000\000\000\000\030\000\000\000\000\b\036\000(x\024\024\000\000\340?\000\000\000\000\000\310\017\001)r\026\030\000\000\000\000\026\000\000\000\000\020\036\000)r$\026\000\000\000\000\024\000\000\000\000\022\036\000\210s\000\016$\200 \000\000\n\000\000\000\350\037\000\204y\034\r\000\bb\000\000\032\000\000\000(\016\000\204y\032\r\000(f\000\000\032\000\000\000h\016\000\204y\024\r\000\030d\000\000\032\000\000\000\250\016\000\204y\026\r\000 d\000\000\032\000\000\000\350\016\000\204y\030\r\000\020d\000\000\032\000\000\000\"\017\000(z\034\034\000\000\200\000\000\000\000\000\000\310\037\000(z\032\032\000\002\200\000\000\000\000\000\000\b.\000(z\024\024\000\004\200\000\000\000\000\000\000\310O\000)r\032\034\000\000\000\000\032\000\000\000\000\b\036\000(z\026\026\000\006\200\000\000\000\000\000\000\310\217\000)r\024\032\000\000\000\000\024\000\000\000\000\b\036\000(x\030\030\000\000\340?\000\000\000\000\000\310\017\001)r\024\024\000\000\000\000\026\000\000\000\000\020\036\000)r$\024\000\000\000\000\030\000\000\000\000\022\036\000\210s\000\016$\000!\000\000\n\000\000\000\350\037\000\204y\034\r\000\210b\000\000\032\000\000\000(\016\000\204y\024\r\000\250f\000\000\032\000\000\000h\016\000\204y\026\r\000\230d\000\000\032\000\000\000\250\016\000\204y\030\r\000\240d\000\000\032\000\000\000\350\016\000\204y\032\r\000\220d\000\000\032\000\000\000\"\017\000(z\034\034\000\000\200\000\000\000\000\000\000\310\037\000(z\024\024\000\002\200\000\000\000\000\000\000\b.\000(z\026\026\000\004\200\000\000\000\000\000\000\310O\000)r\024\034\000\000\000\000\024\000\000\000\000\b\036\000(z\030\030\000\006\200\000\000\000\000\000\000\310\217\000)r\024\024\000\000\000\000\026\000\000\000\000\b\036\000(x\032\032\000\000\340?\000\000\000\000\000\310\017\001)r\024\024\000\000\000\000\030\000\000\000\000\020\036\000)r\024\024\000\000\000\000\032\000\000\000\000\022\036\000\210s\000\016\024\200!\000\000\n\000\000\000\350\037\000\030y\000\000\000\000\000\000\000\000\000\000\000\342\017\000\035{\000\000\000\000\000\000\000\000\000\000\000\352\017\000G)\000\000P\002\000\000\000\000\200\003\000\352\017\000\002r&\000\016\000\000\000\000\017\000\000\000\342\017\000$r%\377\377\000\000\000 \000\216\007\000\342\017\000\002r$\000\037\000\000\000\000\017\000\000\000\342\017\000$r#\377\377\000\000\000\023\000\216\007\000\342\017\000\002r\035\000\022\000\000\000\000\017\000\000\000\304\017\000\211\363\377\377\377\000\000\000\377\000\016\000\000\342\017\000\fx\000\000?\000\000\000p@\366\003\000\342\017\000Us\377\002\000\000\000\000\000\000\020\000\000\342\017\000\020x\035\035\020\000\000\000\377\340\365\007\000\342\017\000Ey\002\000p\001\000\000\000\000\200\003\000\342\017\000\fr\000\002\377\000\000\0000C\366\003\000\306\017\000$r#\377\377\000\000\000#\006\016\001\000\342\017\000\fx\000\035\037\000\000\000p@\364\003\000\310\017\000\fr\000#\377\000\000\000 C\364\003\000\310\017\000G9\000\000\020\001\000\000\000\000\200\003\000\352\037\000\002r\034\000&\000\000\000\000\017\000\000\000\342\017\000$r\033\377\377\000\000\000%\000\216\007\000\342\017\000\002r\032\000$\000\000\000\000\017\000\000\000\342\017\000$r\031\377\377\000\000\000\002\000\216\007\000\342\017\000\002r\030\000\000\000\000\000\000\017\000\000\000\310\017\000\204y\026\034\000\000\000\000\000\032\000\000\000b\020\000$r\024\377\377\000\000\000\032\000\216\007\000\342\017\000\020x\030\030\020\000\000\000\377\340\367\007\000\342\017\000$r\025\377\377\000\000\000\033\000\216\007\000\342\017\000\020x\032\032\200\000\000\000\377\340\371\007\000\306\017\000$r\031\377\377\000\000\000\031\006\216\001\000\342\017\000\fx\000\030?\000\000\000p@\366\003\000\342\017\000$r\033\377\377\000\000\000\033\006\016\002\000\342\017\000\020x\034\034\200\000\000\000\377\340\377\007\000\344\037\000\fr\000\031\377\000\000\0000C\366\003\000\342\017\000\205s\000\024\000\000\000\000\026\353\020\000\000\366!\000G\271\000\000@\377\377\377\377\377\203\003\000\352\017\000Ay\002\000\000\000\000\000\000\000\200\003\000\352\017\000\020x$$\000\001\020\000\377\340\367\007\000\344\017\000\020x&&\000 \000\000\377\340\377\007\000\306\017\000$r%\377\377\000\000\000%\006\216\001\000\342\017\000G\251\000\000\000\376\377\377\377\377\203\003\000\352\017\000Ay\001\000\000\000\000\000\000\000\200\003\000\352\017\000\020x!!\000\002\000\000\377\340\365\007\000\344\017\000\020x\037\037\000\002\000\000\377\340\367\007\000\306\017\000$r\"\377\377\000\000\000\"\006\016\001\000\344\017\000$r \377\377\000\000\000 \006\216\001\000\342\017\000G\231\000\000`\362\377\377\377\377\203\003\000\352\017\000Ay\000\000\000\000\000\000\000\000\200\003\000\352\017\000\020x\t\t\000\002 \000\377\340\363\007\000\344\017\000\020x\013\013\000\002 \000\377\340\365\007\000\306\017\000$r\n\377\377\000\000\000\n\006\216\000\000\344\017\000$r\f\377\377\000\000\000\f\006\016\001\000\342\017\000G\211\000\000\340\360\377\377\377\377\203\003\000\352\017\000My\000\000\000\000\000\000\000\000\200\003\000\352\017\000Gy\000\000\360\377\377\377\377\377\203\003\000\300\017\000\030y\000\000\000\000\000\000\000\000\000\000\000\300\017\000\030y\000\000\000\000\000\000\000\000\000\000\000\300\017\000\030y\000\000\000\000\000\000\000\000\000\000\000\300\017\000\030y\000\000\000\000\000\000\000\000\000\000\000\300\017\000\030y\000\000\000\000\000\000\000\000\000\000\000\300\017\000\030y\000\000\000\000\000\000\000\000\000\000\000\300\017\000\000\000\000\000\000\000\000\000\000\000\000\000\000\000\000\000\000\000\000\000\000\000\000\000\000\000\000\000\000\000\000\000\000\000\000\000\000\000\000\000\000\000\000\000\000\000\000\000\000\000\000\000\000\000\000\000\000\000\000\000\000\000\000\000\001\000\000\000\003\000\000\000\000\000\000\000\000\000\000\000\000\000\000\000\000\000\000\000@\000\000\000\000\000\000\000\222\001\000\000\000\000\000\000\000\000\000\000\000\000\000\000\001\000\000\000\000\000\000\000\000\000\000\000\000\000\000\000\013\000\000\000\003\000\000\000\000\000\000\000\000\000\000\000\000\000\000\000\000\000\000\000\322\001\000\000\000\000\000\000y\002\000\000\000\000\000\000\000\000\000\000\000\000\000\000\001\000\000\000\000\000\000\000\000\000\000\000\000\000\000\000\023\000\000\000\002\000\000\000\000\000\000\000\000\000\000\000\000\000\000\000\000\000\000\000P\004\000\000\000\000\000\000\330\000\000\000\000\000\000\000\002\000\000\000\b\000\000\000\b\000\000\000\000\000\000\000\030\000\000\000\000\000\000\000\370\000\000\000\001\000\000\000\000\000\000\000\000\000\000\000\000\000\000\000\000\000\000\000(\005\000\000\000\000\000\000p\000\000\000\000\000\000\000\000\000\000\000\000\000\000\000\001\000\000\000\000\000\000\000\000\000\000\000\000\000\000\000)\000\000\000\000\000\000p\000\000\000\000\000\000\000\000\000\000\000\000\000\000\000\000\230\005\000\000\000\000\000\000$\000\000\000\000\000\000\000\003\000\000\000\000\000\000\000\004\000\000\000\000\000\000\000\000\000\000\000\000\000\000\000M\000\000\000\000\000\000p\000\000\000\000\000\000\000\000\000\000\000\000\000\000\000\000\274\005\000\000\000\000\000\0004\001\000\000\000\000\000\000\003\000\000\000\f\000\000\000\004\000\000\000\000\000\000\000\000\000\000\000\000\000\000\000g\001\000\000\001\000\000p\000\000\000\000\000\000\000\000\000\000\000\000\000\000\000\000\360\006\000\000\000\000\000\000\030\000\000\000\000\000\000\000\003\000\000\000\000\000\000\000\004\000\000\000\000\000\000\000\b\000\000\000\000\000\000\000\203\001\000\000\013\000\000p\000\000\000\000\000\000\000\000\000\000\000\000\000\000\000\000\b\007\000\000\000\000\000\000\340\000\000\000\000\000\000\000\000\000\000\000\000\000\000\000\b\000\000\000\000\000\000\000\b\000\000\000\000\000\000\000D\001\000\000\t\000\000\000\000\000\000\000\000\000\000\000\000\000\000\000\000\000\000\000\350\007\000\000\000\000\000\000\020\000\000\000\000\000\000\000\003\000\000\000\004\000\000\000\b\000\000\000\000\000\000\000\020\000\000\000\000\000\000\000\213\000\000\000\001\000\000\000\002\000\000\000\000\000\000\000\000\000\000\000\000\000\000\000\370\007\000\000\000\000\000\000 \000\000\000\000\000\000\000\000\000\000\000\f\000\000\000\b\000\000\000\000\000\000\000\000\000\000\000\000\000\000\000\256\000\000\000\001\000\000\000\002\000\000\000\000\000\000\000\000\000\000\000\000\000\000\000\030\b\000\000\000\000\000\000\320\001\000\000\000\000\000\000\000\000\000\000\f\000\000\000\004\000\000\000\000\000\000\000\000\000\000\000\000\000\000\0002\000\000\000\001\000\000\000\006\000\020\000\000\000\000\000\000\000\000\000\000\000\000\000\000\n\000\000\000\000\000\000\000\022\000\000\000\000\000\000\003\000\000\000\b\000\000)\200\000\000\000\000\000\000\000\000\000\000\000\000\000\000\000k\000\000\000\b\000\000\000\003\000\000\000\000\000\000\000\000\000\000\000\000\000\000\000\000\034\000\000\000\000\000\000 \206\000\000\000\000\000\000\000\000\000\000\f\000\000\000\b\000\000\000\000\000\000\000\000\000\000\000\000\000\000"
	.size	stencil_2d5pt_kernel_gpubin_cst, 8064

	.section	".note.GNU-stack","",@progbits