	.text
	.file	"LLVMDialectModule"
	.globl	stencil_3d7pt                   # -- Begin function stencil_3d7pt
	.p2align	4, 0x90
	.type	stencil_3d7pt,@function
stencil_3d7pt:                          # @stencil_3d7pt
.Lfunc_begin0:
	.file	1 "/home/jzh/mlir_stencil/SWStenDSL/examples/3d7pt_arbitrary_shape" "test5.mlir"
	.loc	1 5 0                           # test5.mlir:5:0
	.cfi_startproc
# %bb.0:
	pushq	%rbp
	.cfi_def_cfa_offset 16
	pushq	%r15
	.cfi_def_cfa_offset 24
	pushq	%r14
	.cfi_def_cfa_offset 32
	pushq	%r13
	.cfi_def_cfa_offset 40
	pushq	%r12
	.cfi_def_cfa_offset 48
	pushq	%rbx
	.cfi_def_cfa_offset 56
	subq	$312, %rsp                      # imm = 0x138
	.cfi_def_cfa_offset 368
	.cfi_offset %rbx, -56
	.cfi_offset %r12, -48
	.cfi_offset %r13, -40
	.cfi_offset %r14, -32
	.cfi_offset %r15, -24
	.cfi_offset %rbp, -16
	movq	%r9, (%rsp)                     # 8-byte Spill
	movq	%r8, %r13
	movq	%rcx, %rbp
	movq	%rdx, %r15
	movq	%rsi, %r14
	movq	%rdi, %r12
.Ltmp0:
	.loc	1 35 11 prologue_end            # test5.mlir:35:11
	movl	$8000, %edi                     # imm = 0x1F40
	callq	malloc@PLT
	.loc	1 58 11                         # test5.mlir:58:11
	movl	$stencil_3d7pt_kernel_gpubin_cst, %edi
	callq	mgpuModuleLoad@PLT
	movq	%rax, 16(%rsp)                  # 8-byte Spill
	.loc	1 62 11                         # test5.mlir:62:11
	movl	$stencil_3d7pt_kernel_stencil_3d7pt_kernel_kernel_name, %esi
	movq	%rax, %rdi
	callq	mgpuModuleGetFunction@PLT
	movq	%rax, 8(%rsp)                   # 8-byte Spill
	.loc	1 64 11                         # test5.mlir:64:11
	callq	mgpuStreamCreate@PLT
	movq	%rax, %rbx
	.loc	1 90 5                          # test5.mlir:90:5
	movq	%r12, 24(%rsp)
	leaq	24(%rsp), %rax
	.loc	1 93 5                          # test5.mlir:93:5
	movq	%rax, 168(%rsp)
	.loc	1 96 5                          # test5.mlir:96:5
	movq	%r14, 32(%rsp)
	.loc	1 95 11                         # test5.mlir:95:11
	leaq	32(%rsp), %rax
	.loc	1 99 5                          # test5.mlir:99:5
	movq	%rax, 176(%rsp)
	.loc	1 102 5                         # test5.mlir:102:5
	movq	%r15, 40(%rsp)
	.loc	1 101 11                        # test5.mlir:101:11
	leaq	40(%rsp), %rax
	.loc	1 105 5                         # test5.mlir:105:5
	movq	%rax, 184(%rsp)
	.loc	1 108 5                         # test5.mlir:108:5
	movq	%rbp, 48(%rsp)
	.loc	1 107 11                        # test5.mlir:107:11
	leaq	48(%rsp), %rax
	.loc	1 111 5                         # test5.mlir:111:5
	movq	%rax, 192(%rsp)
	.loc	1 114 5                         # test5.mlir:114:5
	movq	%r13, 56(%rsp)
	.loc	1 113 11                        # test5.mlir:113:11
	leaq	56(%rsp), %rax
	.loc	1 117 5                         # test5.mlir:117:5
	movq	%rax, 200(%rsp)
	movq	(%rsp), %rax                    # 8-byte Reload
	.loc	1 120 5                         # test5.mlir:120:5
	movq	%rax, 64(%rsp)
	.loc	1 119 12                        # test5.mlir:119:12
	leaq	64(%rsp), %rax
	.loc	1 123 5                         # test5.mlir:123:5
	movq	%rax, 208(%rsp)
	.loc	1 126 5                         # test5.mlir:126:5
	movq	368(%rsp), %rax
	movq	%rax, 72(%rsp)
	.loc	1 125 12                        # test5.mlir:125:12
	leaq	72(%rsp), %rax
	.loc	1 129 5                         # test5.mlir:129:5
	movq	%rax, 216(%rsp)
	.loc	1 132 5                         # test5.mlir:132:5
	movq	376(%rsp), %rax
	movq	%rax, 80(%rsp)
	.loc	1 131 12                        # test5.mlir:131:12
	leaq	80(%rsp), %rax
	.loc	1 135 5                         # test5.mlir:135:5
	movq	%rax, 224(%rsp)
	.loc	1 138 5                         # test5.mlir:138:5
	movq	384(%rsp), %rax
	movq	%rax, 88(%rsp)
	.loc	1 137 12                        # test5.mlir:137:12
	leaq	88(%rsp), %rax
	.loc	1 141 5                         # test5.mlir:141:5
	movq	%rax, 232(%rsp)
	.loc	1 144 5                         # test5.mlir:144:5
	movq	392(%rsp), %rax
	movq	%rax, 96(%rsp)
	.loc	1 143 12                        # test5.mlir:143:12
	leaq	96(%rsp), %rax
	.loc	1 147 5                         # test5.mlir:147:5
	movq	%rax, 240(%rsp)
	.loc	1 150 5                         # test5.mlir:150:5
	movq	400(%rsp), %rax
	movq	%rax, 104(%rsp)
	.loc	1 149 12                        # test5.mlir:149:12
	leaq	104(%rsp), %rax
	.loc	1 153 5                         # test5.mlir:153:5
	movq	%rax, 248(%rsp)
	.loc	1 156 5                         # test5.mlir:156:5
	movq	408(%rsp), %rax
	movq	%rax, 112(%rsp)
	.loc	1 155 12                        # test5.mlir:155:12
	leaq	112(%rsp), %rax
	.loc	1 159 5                         # test5.mlir:159:5
	movq	%rax, 256(%rsp)
	.loc	1 162 5                         # test5.mlir:162:5
	movq	416(%rsp), %rax
	movq	%rax, 120(%rsp)
	.loc	1 161 12                        # test5.mlir:161:12
	leaq	120(%rsp), %rax
	.loc	1 165 5                         # test5.mlir:165:5
	movq	%rax, 264(%rsp)
	.loc	1 168 5                         # test5.mlir:168:5
	movq	424(%rsp), %rax
	movq	%rax, 128(%rsp)
	.loc	1 167 12                        # test5.mlir:167:12
	leaq	128(%rsp), %rax
	.loc	1 171 5                         # test5.mlir:171:5
	movq	%rax, 272(%rsp)
	.loc	1 174 5                         # test5.mlir:174:5
	movq	432(%rsp), %rax
	movq	%rax, 136(%rsp)
	.loc	1 173 12                        # test5.mlir:173:12
	leaq	136(%rsp), %rax
	.loc	1 177 5                         # test5.mlir:177:5
	movq	%rax, 280(%rsp)
	.loc	1 180 5                         # test5.mlir:180:5
	movq	440(%rsp), %rax
	movq	%rax, 144(%rsp)
	.loc	1 179 12                        # test5.mlir:179:12
	leaq	144(%rsp), %rax
	.loc	1 183 5                         # test5.mlir:183:5
	movq	%rax, 288(%rsp)
	.loc	1 186 5                         # test5.mlir:186:5
	movq	448(%rsp), %rax
	movq	%rax, 152(%rsp)
	.loc	1 185 12                        # test5.mlir:185:12
	leaq	152(%rsp), %rax
	.loc	1 189 5                         # test5.mlir:189:5
	movq	%rax, 296(%rsp)
	.loc	1 192 5                         # test5.mlir:192:5
	movq	456(%rsp), %rax
	movq	%rax, 160(%rsp)
	.loc	1 191 12                        # test5.mlir:191:12
	leaq	160(%rsp), %rax
	.loc	1 195 5                         # test5.mlir:195:5
	movq	%rax, 304(%rsp)
	.loc	1 197 12                        # test5.mlir:197:12
	subq	$8, %rsp
	.cfi_adjust_cfa_offset 8
	leaq	176(%rsp), %rax
	movl	$8, %esi
	movl	$1, %edx
	movl	$1, %ecx
	movl	$8, %r8d
	movl	$1, %r9d
	movq	16(%rsp), %rdi                  # 8-byte Reload
	pushq	$0
	.cfi_adjust_cfa_offset 8
	pushq	%rax
	.cfi_adjust_cfa_offset 8
	pushq	%rbx
	.cfi_adjust_cfa_offset 8
	pushq	$0
	.cfi_adjust_cfa_offset 8
	pushq	$1
	.cfi_adjust_cfa_offset 8
	callq	mgpuLaunchKernel@PLT
	addq	$48, %rsp
	.cfi_adjust_cfa_offset -48
	.loc	1 198 12                        # test5.mlir:198:12
	movq	%rbx, %rdi
	callq	mgpuStreamSynchronize@PLT
	.loc	1 199 12                        # test5.mlir:199:12
	movq	%rbx, %rdi
	callq	mgpuStreamDestroy@PLT
	movq	16(%rsp), %rdi                  # 8-byte Reload
	.loc	1 200 12                        # test5.mlir:200:12
	callq	mgpuModuleUnload@PLT
	.loc	1 201 5                         # test5.mlir:201:5
	addq	$312, %rsp                      # imm = 0x138
	.cfi_def_cfa_offset 56
	popq	%rbx
	.cfi_def_cfa_offset 48
	popq	%r12
	.cfi_def_cfa_offset 40
	popq	%r13
	.cfi_def_cfa_offset 32
	popq	%r14
	.cfi_def_cfa_offset 24
	popq	%r15
	.cfi_def_cfa_offset 16
	popq	%rbp
	.cfi_def_cfa_offset 8
	retq
.Ltmp1:
.Lfunc_end0:
	.size	stencil_3d7pt, .Lfunc_end0-stencil_3d7pt
	.cfi_endproc
                                        # -- End function
	.globl	_mlir_ciface_stencil_3d7pt      # -- Begin function _mlir_ciface_stencil_3d7pt
	.p2align	4, 0x90
	.type	_mlir_ciface_stencil_3d7pt,@function
_mlir_ciface_stencil_3d7pt:             # @_mlir_ciface_stencil_3d7pt
.Lfunc_begin1:
	.loc	1 203 0                         # test5.mlir:203:0
	.cfi_startproc
# %bb.0:
	pushq	%rax
	.cfi_def_cfa_offset 16
	movq	%rsi, %rax
	movq	%rdi, %r10
.Ltmp2:
	.loc	1 204 10 prologue_end           # test5.mlir:204:10
	movq	40(%rdi), %r9
	movq	32(%rdi), %r8
	movq	24(%rdi), %rcx
	movq	16(%rdi), %rdx
	movq	(%rdi), %rdi
	movq	8(%r10), %rsi
	.loc	1 224 5                         # test5.mlir:224:5
	pushq	64(%rax)
	.cfi_adjust_cfa_offset 8
	pushq	56(%rax)
	.cfi_adjust_cfa_offset 8
	pushq	48(%rax)
	.cfi_adjust_cfa_offset 8
	pushq	40(%rax)
	.cfi_adjust_cfa_offset 8
	pushq	32(%rax)
	.cfi_adjust_cfa_offset 8
	pushq	24(%rax)
	.cfi_adjust_cfa_offset 8
	pushq	16(%rax)
	.cfi_adjust_cfa_offset 8
	pushq	8(%rax)
	.cfi_adjust_cfa_offset 8
	pushq	(%rax)
	.cfi_adjust_cfa_offset 8
	pushq	64(%r10)
	.cfi_adjust_cfa_offset 8
	pushq	56(%r10)
	.cfi_adjust_cfa_offset 8
	pushq	48(%r10)
	.cfi_adjust_cfa_offset 8
	callq	stencil_3d7pt@PLT
	addq	$96, %rsp
	.cfi_adjust_cfa_offset -96
	.loc	1 225 5                         # test5.mlir:225:5
	popq	%rax
	.cfi_def_cfa_offset 8
	retq
.Ltmp3:
.Lfunc_end1:
	.size	_mlir_ciface_stencil_3d7pt, .Lfunc_end1-_mlir_ciface_stencil_3d7pt
	.cfi_endproc
                                        # -- End function
	.globl	stencil_3d7pt_iteration         # -- Begin function stencil_3d7pt_iteration
	.p2align	4, 0x90
	.type	stencil_3d7pt_iteration,@function
stencil_3d7pt_iteration:                # @stencil_3d7pt_iteration
.Lfunc_begin2:
	.loc	1 227 0                         # test5.mlir:227:0
	.cfi_startproc
# %bb.0:
	pushq	%rbp
	.cfi_def_cfa_offset 16
	pushq	%r15
	.cfi_def_cfa_offset 24
	pushq	%r14
	.cfi_def_cfa_offset 32
	pushq	%r13
	.cfi_def_cfa_offset 40
	pushq	%r12
	.cfi_def_cfa_offset 48
	pushq	%rbx
	.cfi_def_cfa_offset 56
	subq	$56, %rsp
	.cfi_def_cfa_offset 112
	.cfi_offset %rbx, -56
	.cfi_offset %r12, -48
	.cfi_offset %r13, -40
	.cfi_offset %r14, -32
	.cfi_offset %r15, -24
	.cfi_offset %rbp, -16
	movq	%r9, 40(%rsp)                   # 8-byte Spill
	movq	%r8, 32(%rsp)                   # 8-byte Spill
	movq	%rcx, 24(%rsp)                  # 8-byte Spill
	movq	%rdx, 16(%rsp)                  # 8-byte Spill
	movq	%rsi, 8(%rsp)                   # 8-byte Spill
	movq	%rdi, (%rsp)                    # 8-byte Spill
	xorl	%eax, %eax
	movq	8(%rsp), %rbp                   # 8-byte Reload
	movq	16(%rsp), %rbx                  # 8-byte Reload
	movq	24(%rsp), %r13                  # 8-byte Reload
	movq	32(%rsp), %r12                  # 8-byte Reload
	movq	40(%rsp), %r15                  # 8-byte Reload
.Ltmp4:
	.loc	1 253 11 prologue_end           # test5.mlir:253:11
	cmpq	$9, %rax
	.loc	1 254 5                         # test5.mlir:254:5
	jg	.LBB2_3
	.p2align	4, 0x90
.LBB2_2:                                # =>This Inner Loop Header: Depth=1
	.loc	1 0 5 is_stmt 0                 # test5.mlir:0:5
	movq	(%rsp), %rdi                    # 8-byte Reload
	.loc	1 274 5 is_stmt 1               # test5.mlir:274:5
	movq	%rbp, %rsi
	movq	%rbx, %rdx
	movq	%r13, %rcx
	movq	%r12, %r8
	movq	%r15, %r9
	movq	%rax, 48(%rsp)                  # 8-byte Spill
	movq	200(%rsp), %rax
	pushq	%rax
	.cfi_adjust_cfa_offset 8
	movq	200(%rsp), %rax
	pushq	%rax
	.cfi_adjust_cfa_offset 8
	movq	200(%rsp), %rax
	pushq	%rax
	.cfi_adjust_cfa_offset 8
	movq	200(%rsp), %rax
	pushq	%rax
	.cfi_adjust_cfa_offset 8
	movq	200(%rsp), %rax
	pushq	%rax
	.cfi_adjust_cfa_offset 8
	movq	200(%rsp), %rax
	pushq	%rax
	.cfi_adjust_cfa_offset 8
	movq	200(%rsp), %rax
	pushq	%rax
	.cfi_adjust_cfa_offset 8
	movq	200(%rsp), %r14
	pushq	%r14
	.cfi_adjust_cfa_offset 8
	movq	200(%rsp), %r14
	pushq	%r14
	.cfi_adjust_cfa_offset 8
	movq	200(%rsp), %rax
	pushq	%rax
	.cfi_adjust_cfa_offset 8
	movq	200(%rsp), %rax
	pushq	%rax
	.cfi_adjust_cfa_offset 8
	movq	200(%rsp), %rax
	pushq	%rax
	.cfi_adjust_cfa_offset 8
	callq	stencil_3d7pt@PLT
	addq	$96, %rsp
	.cfi_adjust_cfa_offset -96
	.loc	1 293 5                         # test5.mlir:293:5
	movq	%r14, %rdi
	movq	144(%rsp), %rsi
	movq	152(%rsp), %rdx
	movq	160(%rsp), %rcx
	movq	168(%rsp), %r8
	movq	176(%rsp), %r9
	pushq	128(%rsp)
	.cfi_adjust_cfa_offset 8
	pushq	128(%rsp)
	.cfi_adjust_cfa_offset 8
	pushq	128(%rsp)
	.cfi_adjust_cfa_offset 8
	pushq	%r15
	.cfi_adjust_cfa_offset 8
	pushq	%r12
	.cfi_adjust_cfa_offset 8
	pushq	%r13
	.cfi_adjust_cfa_offset 8
	pushq	%rbx
	.cfi_adjust_cfa_offset 8
	pushq	%rbp
	.cfi_adjust_cfa_offset 8
	pushq	64(%rsp)                        # 8-byte Folded Reload
	.cfi_adjust_cfa_offset 8
	pushq	272(%rsp)
	.cfi_adjust_cfa_offset 8
	pushq	272(%rsp)
	.cfi_adjust_cfa_offset 8
	pushq	272(%rsp)
	.cfi_adjust_cfa_offset 8
	callq	stencil_3d7pt@PLT
	movq	144(%rsp), %rax                 # 8-byte Reload
	addq	$96, %rsp
	.cfi_adjust_cfa_offset -96
	.loc	1 294 11                        # test5.mlir:294:11
	incq	%rax
	.loc	1 253 11                        # test5.mlir:253:11
	cmpq	$9, %rax
	.loc	1 254 5                         # test5.mlir:254:5
	jle	.LBB2_2
.LBB2_3:
	.loc	1 297 5                         # test5.mlir:297:5
	addq	$56, %rsp
	.cfi_def_cfa_offset 56
	popq	%rbx
	.cfi_def_cfa_offset 48
	popq	%r12
	.cfi_def_cfa_offset 40
	popq	%r13
	.cfi_def_cfa_offset 32
	popq	%r14
	.cfi_def_cfa_offset 24
	popq	%r15
	.cfi_def_cfa_offset 16
	popq	%rbp
	.cfi_def_cfa_offset 8
	retq
.Ltmp5:
.Lfunc_end2:
	.size	stencil_3d7pt_iteration, .Lfunc_end2-stencil_3d7pt_iteration
	.cfi_endproc
                                        # -- End function
	.globl	_mlir_ciface_stencil_3d7pt_iteration # -- Begin function _mlir_ciface_stencil_3d7pt_iteration
	.p2align	4, 0x90
	.type	_mlir_ciface_stencil_3d7pt_iteration,@function
_mlir_ciface_stencil_3d7pt_iteration:   # @_mlir_ciface_stencil_3d7pt_iteration
.Lfunc_begin3:
	.loc	1 299 0                         # test5.mlir:299:0
	.cfi_startproc
# %bb.0:
	pushq	%rax
	.cfi_def_cfa_offset 16
	movq	%rsi, %rax
	movq	%rdi, %r10
.Ltmp6:
	.loc	1 300 10 prologue_end           # test5.mlir:300:10
	movq	40(%rdi), %r9
	movq	32(%rdi), %r8
	movq	24(%rdi), %rcx
	movq	16(%rdi), %rdx
	movq	(%rdi), %rdi
	movq	8(%r10), %rsi
	.loc	1 320 5                         # test5.mlir:320:5
	pushq	64(%rax)
	.cfi_adjust_cfa_offset 8
	pushq	56(%rax)
	.cfi_adjust_cfa_offset 8
	pushq	48(%rax)
	.cfi_adjust_cfa_offset 8
	pushq	40(%rax)
	.cfi_adjust_cfa_offset 8
	pushq	32(%rax)
	.cfi_adjust_cfa_offset 8
	pushq	24(%rax)
	.cfi_adjust_cfa_offset 8
	pushq	16(%rax)
	.cfi_adjust_cfa_offset 8
	pushq	8(%rax)
	.cfi_adjust_cfa_offset 8
	pushq	(%rax)
	.cfi_adjust_cfa_offset 8
	pushq	64(%r10)
	.cfi_adjust_cfa_offset 8
	pushq	56(%r10)
	.cfi_adjust_cfa_offset 8
	pushq	48(%r10)
	.cfi_adjust_cfa_offset 8
	callq	stencil_3d7pt_iteration@PLT
	addq	$96, %rsp
	.cfi_adjust_cfa_offset -96
	.loc	1 321 5                         # test5.mlir:321:5
	popq	%rax
	.cfi_def_cfa_offset 8
	retq
.Ltmp7:
.Lfunc_end3:
	.size	_mlir_ciface_stencil_3d7pt_iteration, .Lfunc_end3-_mlir_ciface_stencil_3d7pt_iteration
	.cfi_endproc
                                        # -- End function
	.type	stencil_3d7pt_kernel_stencil_3d7pt_kernel_kernel_name,@object # @stencil_3d7pt_kernel_stencil_3d7pt_kernel_kernel_name
	.section	.rodata,"a",@progbits
	.p2align	4
stencil_3d7pt_kernel_stencil_3d7pt_kernel_kernel_name:
	.asciz	"stencil_3d7pt_kernel"
	.size	stencil_3d7pt_kernel_stencil_3d7pt_kernel_kernel_name, 21

	.type	stencil_3d7pt_kernel_gpubin_cst,@object # @stencil_3d7pt_kernel_gpubin_cst
	.p2align	4
stencil_3d7pt_kernel_gpubin_cst:
	.asciz	"\177ELF\002\001\0013\007\000\000\000\000\000\000\000\002\000\276\000o\000\000\000\000\000\000\000\000\000\000\000@#\000\000\000\000\000\000\000 \000\000\000\000\000\000F\005#\000@\0008\000\003\000@\000\r\000\001\000\000.shstrtab\000.strtab\000.symtab\000.symtab_shndx\000.nv.info\000.text.stencil_3d7pt_kernel\000.nv.info.stencil_3d7pt_kernel\000.nv.shared.stencil_3d7pt_kernel\000.nv.constant2.stencil_3d7pt_kernel\000.nv.constant0.stencil_3d7pt_kernel\000.rel.nv.constant0.stencil_3d7pt_kernel\000.debug_frame\000.rel.text.stencil_3d7pt_kernel\000.rel.debug_frame\000.nv.rel.action\000\000.shstrtab\000.strtab\000.symtab\000.symtab_shndx\000.nv.info\000stencil_3d7pt_kernel\000.text.stencil_3d7pt_kernel\000.nv.info.stencil_3d7pt_kernel\000.nv.shared.stencil_3d7pt_kernel\000$____wg_stencil_3d7pt_kernel_0__38\000.nv.constant2.stencil_3d7pt_kernel\000stencil_3d7pt_kernel.const2.0.8\000stencil_3d7pt_kernel.const2.8.16\000stencil_3d7pt_kernel.const2.16.24\000stencil_3d7pt_kernel.const2.24.32\000stencil_3d7pt_kernel.const2.32.40\000stencil_3d7pt_kernel.const2.40.48\000.rel.nv.constant0.stencil_3d7pt_kernel\000.nv.constant0.stencil_3d7pt_kernel\000_param\000.debug_frame\000.rel.text.stencil_3d7pt_kernel\000.rel.debug_frame\000.nv.rel.action\000\000\000\000\000\000\000\000\000\000\000\000\000\000\000\000\000\000\000\000\000\000\000\000\000G\000\000\000\003\000\013\000\000\000\000\000\000\000\000\000\000\000\000\000\000\000\000\000\200\000\000\000\003\000\f\000\000\000\000\000\000\000\000\000\000\000\000\000\000\000\000\000\303\000\000\000\003\000\t\000\000\000\000\000\000\000\000\000\000\000\000\000\000\000\000\000\326\001\000\000\003\000\n\000\000\000\000\000\000\000\000\000\000\000\000\000\000\000\000\000\000\002\000\000\003\000\004\000\000\000\000\000\000\000\000\000\000\000\000\000\000\000\000\000=\002\000\000\003\000\007\000\000\000\000\000\000\000\000\000\000\000\000\000\000\000\000\0002\000\000\000\022\020\013\000\000\000\000\000\000\000\000\000\000\026\000\000\000\000\000\000\377\377\377\377(\000\000\000\000\000\000\000\377\377\377\377\377\377\377\377\003\000\004|\377\377\377\377\017\f\201\200\200(\000\b\377\201\200(\b\201\200\200(\000\000\000\000\000\000\000\377\377\377\3770\000\000\000\000\000\000\000\000\000\000\000\000\000\000\000\000\000\000\000\000\000\000\000\360\025\000\000\000\000\000\000\004\004\000\000\000\004\000\000\000\000\f\201\200\200(\000\004d\005\000\000\000\000\000\004\021\b\000\007\000\000\000\000\000\000\000\004/\b\000\007\000\000\000&\000\000\000\004\022\b\000\007\000\000\000\000\000\000\000\004\036\004\000\000\000\000\000\004\034\f\000\360\t\000\000@\024\000\000\240\025\000\000\0041\024\000\020\000\000\000@\002\000\000\000\003\000\000@\006\000\000\000\007\000\000\003\033\377\000\004\027\f\000\000\000\000\000\000\000\000\000\000\360!\000\004\027\f\000\000\000\000\000\001\000\b\000\000\360!\000\004\027\f\000\000\000\000\000\002\000\020\000\000\360!\000\004\027\f\000\000\000\000\000\003\000\030\000\000\360!\000\004\027\f\000\000\000\000\000\004\000 \000\000\360!\000\004\027\f\000\000\000\000\000\005\000(\000\000\360!\000\004\027\f\000\000\000\000\000\006\0000\000\000\360!\000\004\027\f\000\000\000\000\000\007\0008\000\000\360!\000\004\027\f\000\000\000\000\000\b\000@\000\000\360!\000\004\027\f\000\000\000\000\000\t\000H\000\000\360!\000\004\027\f\000\000\000\000\000\n\000P\000\000\360!\000\004\027\f\000\000\000\000\000\013\000X\000\000\360!\000\004\027\f\000\000\000\000\000\f\000`\000\000\360!\000\004\027\f\000\000\000\000\000\r\000h\000\000\360!\000\004\027\f\000\000\000\000\000\016\000p\000\000\360!\000\004\027\f\000\000\000\000\000\017\000x\000\000\360!\000\004\027\f\000\000\000\000\000\020\000\200\000\000\360!\000\004\027\f\000\000\000\000\000\021\000\210\000\000\360!\000\003\031\220\000\004\n\b\000\004\000\000\000`\001\220\000\0047\004\000o\000\000\000\0046\004\000\001\000\000\000K\000\000\000\000\000\000\000\000\002\002\b\020\n/\"\000\000\000\b\000\000\000\000\000\000\b\b\000\000\000\000\000\000\020\b\000\000\000\000\000\000\030\b\000\000\000\000\000\000 \b\000\000\000\000\000\000(\b\000\000\000\000\000\0000\b\000\000\000\000\000\0008\b\000\000\000\000\001\000\000\b\000\000\000\000\001\000\b\b\000\000\000\000\001\000\020\b\000\000\000\000\001\000\030\b\000\000\000\000\001\000 \b\000\000\000\000\001\000(\b\000\000\000\000\001\0000\b\000\000\000\000\001\0008\b\000\000\000\000\002\000\000\b\000\000\000\000\002\000\b\b\000\000\000\000\002\000\020\b\000\000\000\000\002\000\030\b\000\000\000\000\002\000 \b\000\000\000\000\002\000(\b\000\000\000\000\002\0000\b\000\000\000\000\002\0008\b\000\000\000\000H\000\000\000\000\000\000\000\002\000\000\000\007\000\000\000\232\231\231\231\231\231\271?\232\231\231\231\231\231\311?333333\323?\232\231\231\231\231\231\331?333333\343?ffffff\346?\000\000\000\000\000\000\000\000\000\000\000\000\000\000\000\000\000\000\000\000\000\000\000\000\000\000\000\000\000\000\000\000\000\000\000\000\000\000\000\000\000\000\000\000\000\000\000\000\000\000\000\000\000\000\000\000\000\000\000\000\000\000\000\000\000\000\000\000\000\000\000\000\000\000\000\000\000\000\000\000\000\000\000\000\000\000\000\000\000\000\000\000\000\000\000\000\000\000\000\000\000\000\000\000\000\000\000\000\000\000\000\000\000\000\000\000\000\000\000\000\000\000\000\000\000\000\000\000\000\000\000\000\000\000\000\000\000\000\000\000\000\000\000\000\000\000\000\000\000\000\000\000\000\000\000\000\000\000\000\000\000\000\000\000\000\000\000\000\000\000\000\000\000\000\000\000\000\000\000\000\000\000\000\000\000\000\000\000\000\000\000\000\000\000\000\000\000\000\000\000\000\000\000\000\000\000\000\000\000\000\000\000\000\000\000\000\000\000\000\000\000\000\000\000\000\000\000\000\000\000\000\000\000\000\000\000\000\000\000\000\000\000\000\000\000\000\000\000\000\000\000\000\000\000\000\000\000\000\000\000\000\000\000\000\000\000\000\000\000\000\000\000\000\000\000\000\000\000\000\000\000\000\000\000\000\000\000\000\000\000\000\000\000\000\000\000\000\000\000\000\000\000\000\000\000\000\000\000\000\000\000\000\000\000\000\000\000\000\000\000\000\000\000\000\000\000\000\000\000\000\000\000\000\000\000\000\000\000\000\000\000\000\000\000\000\000\000\000\000\000\000\000\000\000\000\000\000\000\000\000\000\000\000\000\000\000\000\000\000\000\000\000\000\000\000\000\000\000\000\000\000\000\000\000\000\000\000\000\000\000\000\000\000\000\000\000\000\000\000\000\000\000\000\000\000\000\000\000\000\000\000\000\000\000\000\000\000\000\000\000\000\000\000\000\000\000\000\000\000\000\000\000\000\000\000\000\000\000\000\000\000\000\000\000\000\000\000\000\000\000\000\000\000\000\000\000\000\000\000\000\000\000\000\000\000\000\000\000\000\000\000\000\000\000\000\000\000\000\000\000\000\000\000\000\000\000\000\000\000\000\000\000\000\000\000\000\000\000\000\000\000\000\000\000\000\000\000\000\000\000\000\000\000\000\000\000\000\000\000\000\000\000\000\000\000\000\000\000\000\000\000\000\000\000\000\000\000\000\000\000\000\000\000\000\000\000\000\000\000\000\000\000\000\000\000\000\000\000\000\000\000\000\000\000\000\000\000\000\000\000\000\000\000\000\000\000\000\000\000\000\000\000\000\000\000\000\000\000\000\000\000\000\000\000\000\000\000\000\000\000$v\001\377\000\n\000\000\377\000\216\007\000\322\017\000\211\363\377\377\377\000\000\000\377\000\016\000\000\342\017\000\031y\000\000\000\000\000\000\000\"\000\000\000\"\016\000$v\006\377\000\000\000\000\377\000\216\007\000\342\017\000Us\377\000\000\000\000\000\000\000\020\000\000\342\017\000$v\007\377\000\001\000\000\377\000\216\007\000\342\017\000\031y\t\000\000\000\000\000\000#\000\000\000b\016\000$v\n\377\000\002\000\000\377\000\216\007\000\342\017\000Ey\000\000\360\004\000\000\000\000\200\003\000\344\017\000\031y\002\000\000\000\000\000\000!\000\000\000\242\016\000%x\004\000\n\000\000\000\377\002\216\007\000\320\037\000%x\004\td\000\000\000\004\002\216\007\000\342/\000\031x\003\377\037\000\000\000\002\024\001\000\000\314O\000\020r\013\004\002\000\000\000\377\340\361\007\000\344\017\000\002x\004\000\000\000\000\000\000\017\000\000\000\306\017\000$x\b\005\001\000\000\000\003\006\016\000\000\342\017\000\031x\005\377\037\000\000\000\006\024\001\000\000\344\017\000\031x\006\377\037\000\000\000\007\024\001\000\000\344\017\000\031x\007\377\037\000\000\000\n\024\001\000\000\344\017\000\fx\000\t\t\000\000\000p@\360\003\000\344\017\000\031x\n\377\037\000\000\000\t\024\001\000\000\344\017\000\031x\017\013\003\000\000\000\b\002\001\000\000\342\017\004$x\013\013\b\000\000\000\377\000\216\007\000\342\017\000\fr\000\n\377\000\000\000\000C\360\003\000\304\017\000\031x\b\377\037\000\000\000\000\024\001\000\000\344\017\000\020r\f\004\013\000\000\000\377\340\363\007\000\344\017\000\020z\016\013\000Z\000\000\377\340\365\007\000\306\017\000$r\r\377\377\000\000\000\017\006\216\000\000\342\017\000\020z\017\017\000[\000\000\377\344\177\001\000\344\017\000G\t\000\000\220\003\000\000\000\000\200\003\000\356\017\000$r\020\377\377\000\000\000\016\000\216\007\000\344\017\000$r\021\377\377\000\000\000\017\000\216\007\000\344\017\000$r\022\377\377\000\000\000\f\000\216\007\000\344\017\000$r\023\377\377\000\000\000\r\000\216\007\000\344\017\000$r\013\377\377\000\000\000\t\000\216\007\000\304\017\000$r\034\377\377\000\000\000\n\000\216\007\000\322\017\000\211\363\377\377\377\000\000\000\377\000\016\000\000\342\017\000\fx\000\000\t\000\000\000p@\360\003\000\342\017\000Us\377\001\000\000\000\000\000\000\020\000\000\342\017\000Ey\001\000p\002\000\000\000\000\200\003\000\344\017\000\fr\000\b\377\000\000\000\000C\360\003\000\330\017\000G\t\000\000@\002\000\000\000\000\200\003\000\352\037\000$r\035\377\377\000\000\000\000\000\216\007\000\342\017\000\002r\037\000\b\000\000\000\000\017\000\000\000\342\017\000$r\024\377\377\000\000\000\020\000\216\007\000\344\017\000$r\025\377\377\000\000\000\021\000\216\007\000\344\017\000$r\026\377\377\000\000\000\022\000\216\007\000\344\017\000$r\027\377\377\000\000\000\023\000\216\007\000\322\017\000\211\363\377\377\377\000\000\000\377\000\016\000\000\342\017\000\fx\000\002\t\000\000\000p@\362\003\000\342\017\000Us\377\002\000\000\000\000\000\000\020\000\000\342\017\000\020z\035\035\000\001\000\000\377\340\365\007\000\342\017\000Ey\002\000@\001\000\000\000\000\200\003\000\342\017\000\fr\000\003\377\000\000\000\020C\362\003\000\304\017\000\fx\000\035\t\000\000\000p@\360\003\000\342\017\000$x\037\006\001\000\000\000\037\006\016\001\000\322\017\000G\031\000\000\360\000\000\000\000\000\200\003\000\352\037\000$r\036\377\377\000\000\000\002\000\216\007\000\342\017\000\005x\030\000\000\000\000\000\000\377\001\000\000\342\017\000$r \377\377\000\000\000\003\000\216\007\000\322\017\000\020r\032\024\030\000\000\000\377\340\363\007\000\312\037\000$x\033\025\001\000\000\000\031\006\216\000\000\320\017\000\200y\032\032\000\000\000\000\000\353\020\000\000\242\016\000$x!\026\001\000\000\000\030\002\216\007\000\342\017\000\020z\036\036\000\000\000\000\377\340\363\007\000\342\017\000$v#\377\000\000\000\000\377\000\216\007\000\310\017\000$x \005\001\000\000\000 \006\216\000\000\342\017\000\fx\000\036\t\000\000\000p@\362\003\000\342\017\000%x\030#\b\000\000\000\030\002\216\007\000\306\017\000\fr\000 \377\000\000\000\020C\362\003\000\342\017\000\210s\000!\032\000\000\000\000\n\000\000\000\366A\000G\231\000\000@\377\377\377\377\377\203\003\000\352\017\000Ay\002\000\000\000\000\000\000\000\200\003\000\352\017\000\fr\000\037\377\000\000\000\000C\360\003\000\344\017\000\002z\031\000\000\001\000\000\000\017\000\000\000\312\017\000%x\026\031P\000\000\000\026\002\216\007\000\310\017\000%x\024\031P\000\000\000\024\002\216\007\000\342\017\000G\211\000\000 \376\377\377\377\377\203\003\000\360\017\000Ay\001\000\000\000\000\000\000\000\200\003\000\352\017\000\020z\013\013\000\002\000\000\377\340\361\007\000\342\017\000$v\025\377\000\002\000\000\377\000\216\007\000\310\017\000$x\034\007\001\000\000\000\034\006\016\000\000\342\017\000\fx\000\013\t\000\000\000p@\360\003\000\342\017\000%x\022\025 \003\000\000\022\002\216\007\000\306\017\000\fr\000\034\377\000\000\000\000C\360\003\000\342\017\000%x\020\025 \003\000\000\020\002\216\007\000\326\017\000G\211\000\000\320\374\377\377\377\377\203\003\000\352\017\000Ay\000\000\000\000\000\000\000\000\200\003\000\352\017\000\031y\013\000\000\000\000\000\000%\000\000\000h\016\000\030y\000\000\000\000\000\000\000\000\000\000\000\342\017\000\035{\000\000\000\000\000\000\000\000\000\000\000\352\017\000\030y\000\000\000\000\000\000\000\000\000\000\000\342\017\000\035{\000\000\000\000\000\000\000\000\000\000\000\352\017\000\fx\000\t\t\000\000\000p@\360\003\000\342\017\000Us\377\000\000\000\000\000\000\000\020\000\000\342\017\000Ey\000\000\200\003\000\000\000\000\200\003\000\342\017\000\005x\032\000\000\000\000\000\000\377\001\000\000\342\037\000\fr\000\n\377\000\000\000\000C\360\003\000\304\017\000\031x\034\377\037\000\000\000\013\024\001\000\000\324/\000G\t\000\0000\003\000\000\000\000\200\003\000\352\017\000\211\363\377\377\377\000\000\000\377\000\016\000\000\342\017\000\fx\000\000\t\000\000\000p@\360\003\000\342\017\000Us\377\001\000\000\000\000\000\000\020\000\000\342\017\000Ey\001\000p\002\000\000\000\000\200\003\000\344\017\000\fr\000\b\377\000\000\000\000C\360\003\000\330\017\000G\t\000\000@\002\000\000\000\000\200\003\000\352\037\000$r\036\377\377\000\000\000\000\000\216\007\000\344\017\000$r\035\377\377\000\000\000\b\000\216\007\000\344\017\000$r\020\377\377\000\000\000\f\000\216\007\000\344\017\000$r\021\377\377\000\000\000\r\000\216\007\000\344\017\000$r\022\377\377\000\000\000\016\000\216\007\000\344\017\000$r\023\377\377\000\000\000\017\000\216\007\000\322\017\000\211\363\377\377\377\000\000\000\377\000\016\000\000\342\017\000\fx\000\002\t\000\000\000p@\360\003\000\342\017\000Us\377\002\000\000\000\000\000\000\020\000\000\342\017\000\020z\036\036\000\001\000\000\377\340\363\007\000\342\017\000Ey\002\000@\001\000\000\000\000\200\003\000\342\017\000\fr\000\003\377\000\000\000\000C\364\003\000\304\017\000\fx\000\036\t\000\000\000p@\360\003\000\342\017\000$x\035\006\001\000\000\000\035\006\216\000\000\322\017\000G)\000\000\360\000\000\000\000\000\200\003\000\352\037\000$r\037\377\377\000\000\000\002\000\216\007\000\342\017\000\002z!\000\000\000\000\000\000\017\000\000\000\342\017\000$r \377\377\000\000\000\003\000\216\007\000\342\017\000\005x\024\000\000\000\000\000\000\377\001\000\000\322\017\000$x\026\020\001\000\000\000\024\002\216\007\000\342\037\000\020r\030\022\024\000\000\000\377\340\363\007\000\312\017\000$x\031\023\001\000\000\000\025\006\216\000\000\342\017\020\020z\037\037\000\000\000\000\377\340\363\007\000\342\017\000\204y\026\026\000\000\000\000\000\032\000\000\000\"\016\000%x\024!\b\000\000\000\024\002\216\007\000\310\017\000$x \005\001\000\000\000 \006\216\000\000\342\017\000\fx\000\037\t\000\000\000p@\362\003\000\310\017\000\fr\000 \377\000\000\000\020C\362\003\000\342\017\000\205s\000\030\000\000\000\000\026\353\020\000\000\366\021\000G\231\000\000P\377\377\377\377\377\203\003\000\352\017\000Ay\002\000\000\000\000\000\000\000\200\003\000\352\017\000\fr\000\035\377\000\000\000\000C\360\003\000\342\017\000$v\025\377\000\001\000\000\377\000\216\007\000\310\017\000%x\022\025P\000\000\000\022\002\216\007\000\310\017\000%x\020\025P\000\000\000\020\002\216\007\000\306\017\000G\211\000\000 \376\377\377\377\377\203\003\000\354\017\000Ay\001\000\000\000\000\000\000\000\200\003\000\352\017\000\020z\t\t\000\002\000\000\377\340\361\007\000\342\017\000$v\021\377\000\002\000\000\377\000\216\007\000\310\017\000$x\n\007\001\000\000\000\n\006\016\000\000\342\017\000\fx\000\t\t\000\000\000p@\360\003\000\342\017\000%x\016\021 \003\000\000\016\002\216\007\000\306\017\000\fr\000\n\377\000\000\000\000C\360\003\000\342\017\000%x\f\021 \003\000\000\f\002\216\007\000\326\017\000G\211\000\000\320\374\377\377\377\377\203\003\000\352\017\000Ay\000\000\000\000\000\000\000\000\200\003\000\352\017\000\fx\000\377\007\000\000\000p0\360\003\000\342\017\000%x\006\002\n\000\000\000\377\000\216\007\000\306\017\000\fr\000\377\377\000\000\000\0003\360\003\000\342\017\000$x\003\003\n\000\000\000\377\002\216\007\000\344\017\000$x\005\034d\000\000\000\377\002\216\007\000\344\017\000$x\007\007\001\000\000\000\003\002\216\007\000\310\017\000%x\002\013d\000\000\000\006\000\216\007\000\306\017\000M\211\000\000\000\000\000\000\000\000\200\003\000\354\017\000\020x\000\032\007\000\000\000\377\341\361\007\000\342\017\000$x\005\003\001\000\000\000\005\002\216\007\000\344\017\000$x\003\002\b\000\000\000\377\000\216\007\000\342\017\000\fx\000\000\002\000\000\000p@\362\003\000\342\017\000$r\000\377\377\000\000\000\033\016\016\000\000\342\017\000\031x\005\002\003\000\000\000\005\002\001\000\000\344\017\000\020z\002\003\000l\000\000\377\340\361\007\000\344\017\000\fr\000\000\377\000\000\000\020C\362\003\000\304\017\000\020r\000\004\003\000\000\000\377\340\377\007\000\344\017\000\020z\003\005\000m\000\000\377\344\177\000\000\344\017\000\034x\000\000\000\000\000\000p\360\360\003\000\314\017\000G\231\000\000\360\005\000\000\000\000\200\003\000\354\017\000\034x\000\000\000\000\000\000p\341\360\003\000\330\017\000\204y\b\000\000@\006\000\000\032\000\000\000b\016\000\020x\032\032\004\000\000\000\377\340\363\007\000\306\017\000\204y\f\000\000 \003\000\000\032\000\000\000\244\016\000$r\033\377\377\000\000\000\033\006\216\000\000\342\017\000\fx\000\032\005\000\000\000p`\362\003\000\342\017\000\204y\016\000\000\000\000\000\000\032\000\000\000\346\016\000\fr\000\033\377\000\000\000\020c\362\003\000\342\017\000\204y\020\000\000\b\000\000\000\032\000\000\000(\017\000\204y\006\000\000\020\000\000\000\032\000\000\000h\037\000\204y\004\000\000P\000\000\000\032\000\000\000\"\036\000(z\n\b\000\000\200\000\000\000\000\000\000\306#\000\204y\b\000\000\240\000\000\000\032\000\000\000b.\000(z\f\f\000\002\200\000\000\000\000\000\000\210N\000(z\016\016\000\004\200\000\000\000\000\000\000\310\217\000)r\n\n\000\000\000\000\f\000\000\000\000\210N\000(z\020\020\000\006\200\000\000\000\000\000\000\310\017\001)r\n\n\000\000\000\000\016\000\000\000\000\210N\000(x\006\006\000\000\340?\000\000\000\000\000\310\017\002)r\n\n\000\000\000\000\020\000\000\000\000\210N\000(z\004\004\000\b\200\000\000\000\000\000\000\310\037\000)r\006\n\000\000\000\000\006\000\000\000\000\bN\000(z\b\b\000\n\200\000\000\000\000\000\000\310/\000)r\004\006\000\000\000\000\004\000\000\000\000\020\036\000)r\b\004\000\000\000\000\b\000\000\000\000d\020\000$r\004\377\377\000\000\000\002\000\216\007\000\344\037\000$r\005\377\377\000\000\000\003\000\216\007\000\320\017\000\205s\000\004\000\000\000\000\b\353\020\000\000\350/\000\204y\006\000\000H\006\000\000\032\000\000\000(\016\000\204y\f\000\000(\003\000\000\032\000\000\000h\016\000\204y\016\000\000\b\000\000\000\032\000\000\000\250\016\000\204y\020\000\000\020\000\000\000\032\000\000\000\350\016\000\204y\022\000\000\030\000\000\000\032\000\000\000(\017\000\204y\002\000\000X\000\000\000\032\000\000\000b\017\000(z\n\006\000\000\200\000\000\000\000\000\000\306\021\000\204y\006\000\000\250\000\000\000\032\000\000\000\"\036\000(z\f\f\000\002\200\000\000\000\000\000\000H.\000(z\016\016\000\004\200\000\000\000\000\000\000\310O\000)r\n\n\000\000\000\000\f\000\000\000\000H.\000(z\020\020\000\006\200\000\000\000\000\000\000\310\217\000)r\n\n\000\000\000\000\016\000\000\000\000H.\000(x\022\022\000\000\340?\000\000\000\000\000\310\017\001)r\n\n\000\000\000\000\020\000\000\000\000H.\000(z\002\002\000\b\200\000\000\000\000\000\000\310\017\002)r\n\n\000\000\000\000\022\000\000\000\000H.\000(z\006\006\000\n\200\000\000\000\000\000\000\310\037\000)r\002\n\000\000\000\000\002\000\000\000\000\020.\000)r\b\002\000\000\000\000\006\000\000\000\000\022\036\000\205s\000\004\b\000\000\000\b\353\020\000\000\350\037\000\204y\006\000\000P\006\000\000\032\000\000\000(\016\000\204y\f\000\0000\003\000\000\032\000\000\000h\016\000\204y\016\000\000\020\000\000\000\032\000\000\000\250\016\000\204y\020\000\000\030\000\000\000\032\000\000\000\350\016\000\204y\022\000\000 \000\000\000\032\000\000\000(\017\000\204y\002\000\000`\000\000\000\032\000\000\000b\017\000(z\n\006\000\000\200\000\000\000\000\000\000\306\021\000\204y\006\000\000\260\000\000\000\032\000\000\000\"\036\000(z\f\f\000\002\200\000\000\000\000\000\000H.\000(z\016\016\000\004\200\000\000\000\000\000\000\310O\000)r\n\n\000\000\000\000\f\000\000\000\000H.\000(z\020\020\000\006\200\000\000\000\000\000\000\310\217\000)r\n\n\000\000\000\000\016\000\000\000\000H.\000(x\022\022\000\000\340?\000\000\000\000\000\310\017\001)r\n\n\000\000\000\000\020\000\000\000\000H.\000(z\002\002\000\b\200\000\000\000\000\000\000\310\017\002)r\n\n\000\000\000\000\022\000\000\000\000H.\000(z\006\006\000\n\200\000\000\000\000\000\000\310\037\000)r\002\n\000\000\000\000\002\000\000\000\000\020.\000)r\b\002\000\000\000\000\006\000\000\000\000\022\036\000\205s\000\004\020\000\000\000\b\353\020\000\000\350\037\000\204y\006\000\000X\006\000\000\032\000\000\000(\016\000\204y\f\000\0008\003\000\000\032\000\000\000h\016\000\204y\016\000\000\030\000\000\000\032\000\000\000\250\016\000\204y\020\000\000 \000\000\000\032\000\000\000\350\016\000\204y\022\000\000(\000\000\000\032\000\000\000(\017\000\204y\002\000\000h\000\000\000\032\000\000\000b\017\000(z\n\006\000\000\200\000\000\000\000\000\000\306\021\000\204y\006\000\000\270\000\000\000\032\000\000\000b\021\000(z\f\f\000\002\200\000\000\000\000\000\000H.\000(z\016\016\000\004\200\000\000\000\000\000\000\342O\000\020x\000\000 \000\000\000\377\340\377\007\000\306\037\000)r\n\n\000\000\000\000\f\000\000\000\000\b.\000(z\020\020\000\006\200\000\000\000\000\000\000\310\217\000)r\n\n\000\000\000\000\016\000\000\000\000\b\036\000(x\022\022\000\000\340?\000\000\000\000\000\310\017\001)r\n\n\000\000\000\000\020\000\000\000\000\b\036\000(z\002\002\000\b\200\000\000\000\000\000\000\310\017\002)r\n\n\000\000\000\000\022\000\000\000\000\b\036\000(z\006\006\000\n\200\000\000\000\000\000\000\310\017\000)r\002\n\000\000\000\000\002\000\000\000\000\020\036\000)r\006\002\000\000\000\000\006\000\000\000\000d\020\000\020x\002\004 \000\000\000\377\340\365\007\000\312\037\000$r\003\377\377\000\000\000\005\006\016\001\000\344\017\000\205s\000\004\030\000\000\000\006\353\020\000\000\342!\000G\231\000\000 \372\377\377\377\377\203\003\000\354\017\000\020x\004\032\007\000\000\000\377\341\365\007\000\310\037\000\fr\000\004\377\000\000\000p@\362\003\000\342\017\000$r\004\377\377\000\000\000\033\016\016\001\000\312\017\000\fr\000\004\377\000\000\000\020C\362\003\000\330\017\000G\231\000\000 \003\000\000\000\000\200\003\000\352\017\000\204y\b\000\000@\006\000\000\032\000\000\000\"\016\000\020x\032\032\002\000\000\000\377\340\363\007\000\344\017\000\034x\000\000\000\000\000\000p\341\360\003\000\342\017\000\204y\f\000\000 \003\000\000\032\000\000\000d\016\000$r\033\377\377\000\000\000\033\006\216\000\000\344\017\000\204y\016\000\000\000\000\000\000\032\000\000\000\250\016\000\204y\020\000\000\b\000\000\000\032\000\000\000\350\016\000\204y\006\000\000\020\000\000\000\032\000\000\000(\017\000\204y\004\000\000P\000\000\000\032\000\000\000b\017\000(z\n\b\000\000\200\000\000\000\000\000\000\306\021\000\204y\b\000\000\240\000\000\000\032\000\000\000\"\036\000(z\f\f\000\002\200\000\000\000\000\000\000H.\000(z\016\016\000\004\200\000\000\000\000\000\000\310O\000)r\n\n\000\000\000\000\f\000\000\000\000H.\000(z\020\020\000\006\200\000\000\000\000\000\000\310\217\000)r\n\n\000\000\000\000\016\000\000\000\000H.\000(x\006\006\000\000\340?\000\000\000\000\000\310\017\001)r\n\n\000\000\000\000\020\000\000\000\000H.\000(z\004\004\000\b\200\000\000\000\000\000\000\310\017\002)r\006\n\000\000\000\000\006\000\000\000\000H.\000(z\b\b\000\n\200\000\000\000\000\000\000\310\037\000)r\004\006\000\000\000\000\004\000\000\000\000\020.\000)r\f\004\000\000\000\000\b\000\000\000\000d\020\000$r\004\377\377\000\000\000\002\000\216\007\000\342\037\000\020x\002\002\020\000\000\000\377\340\365\007\000\342\017\000$r\005\377\377\000\000\000\003\000\216\007\000\310\017\000$r\003\377\377\000\000\000\003\006\016\001\000\310\017\000\205s\000\004\000\000\000\000\f\353\020\000\000\350/\000\204y\n\000\000H\006\000\000\032\000\000\000(\016\000\204y\020\000\000(\003\000\000\032\000\000\000h\016\000\204y\022\000\000\b\000\000\000\032\000\000\000\250\016\000\204y\024\000\000\020\000\000\000\032\000\000\000\350\016\000\204y\b\000\000\030\000\000\000\032\000\000\000(\017\000\204y\006\000\000X\000\000\000\032\000\000\000b\017\000(z\016\n\000\000\200\000\000\000\000\000\000\306\021\000\204y\n\000\000\250\000\000\000\032\000\000\000b\021\000(z\020\020\000\002\200\000\000\000\000\000\000H.\000(z\022\022\000\004\200\000\000\000\000\000\000\342O\000\020x\000\000\020\000\000\000\377\340\377\007\000\306\037\000)r\016\016\000\000\000\000\020\000\000\000\000\b.\000(z\024\024\000\006\200\000\000\000\000\000\000\310\217\000)r\016\016\000\000\000\000\022\000\000\000\000\b\036\000(x\b\b\000\000\340?\000\000\000\000\000\310\017\001)r\016\016\000\000\000\000\024\000\000\000\000\b\036\000(z\006\006\000\b\200\000\000\000\000\000\000\310\017\002)r\b\016\000\000\000\000\b\000\000\000\000\b\036\000(z\n\n\000\n\200\000\000\000\000\000\000\310\017\000)r\006\b\000\000\000\000\006\000\000\000\000\020\036\000)r\006\006\000\000\000\000\n\000\000\000\000\022\036\000\205s\000\004\b\000\000\000\006\353\020\000\000\344\021\000\fx\000\032\007\000\000\000p@\362\003\000\310\017\000\fr\000\033\377\000\000\000\020C\362\003\000\330\017\000M\211\000\000\000\000\000\000\000\000\200\000\000\352\017\000\204y\004\000\000@\006\000\000\032\000\000\000(\036\000\204y\006\000\000 \003\000\000\032\000\000\000h\016\000\204y\b\000\000\000\000\000\000\032\000\000\000\250\016\000\204y\n\000\000\b\000\000\000\032\000\000\000\350\016\000\204y\f\000\000\020\000\000\000\032\000\000\000(\017\000\204y\016\000\000P\000\000\000\032\000\000\000h\017\000\204y\020\000\000\240\000\000\000\032\000\000\000\"\017\000(z\004\004\000\000\200\000\000\000\000\000\000\310\037\000(z\006\006\000\002\200\000\000\000\000\000\000\b.\000(z\b\b\000\004\200\000\000\000\000\000\000\310O\000)r\004\004\000\000\000\000\006\000\000\000\000\b\036\000(z\n\n\000\006\200\000\000\000\000\000\000\310\217\000)r\004\004\000\000\000\000\b\000\000\000\000\b\036\000(x\f\f\000\000\340?\000\000\000\000\000\310\017\001)r\004\004\000\000\000\000\n\000\000\000\000\b\036\000(z\016\016\000\b\200\000\000\000\000\000\000\310\017\002)r\004\004\000\000\000\000\f\000\000\000\000\b\036\000(z\020\020\000\n\200\000\000\000\000\000\000\310\017\000)r\004\004\000\000\000\000\016\000\000\000\000\020\036\000)r\004\004\000\000\000\000\020\000\000\000\000\022\036\000\205s\000\002\000\000\000\000\004\353\020\000\000\342\037\000My\000\000\000\000\000\000\000\000\200\003\000\352\017\000Gy\000\000\360\377\377\377\377\377\203\003\000\300\017\000\030y\000\000\000\000\000\000\000\000\000\000\000\300\017\000\030y\000\000\000\000\000\000\000\000\000\000\000\300\017\000\030y\000\000\000\000\000\000\000\000\000\000\000\300\017\000\030y\000\000\000\000\000\000\000\000\000\000\000\300\017\000\000\000\000\000\000\000\000\000\000\000\000\000\000\000\000\000\000\000\000\000\000\000\000\000\000\000\000\000\000\000\000\000\000\000\000\000\000\000\000\000\000\000\000\000\000\000\000\000\000\000\000\000\000\000\000\000\000\000\000\000\000\000\000\000\001\000\000\000\003\000\000\000\000\000\000\000\000\000\000\000\000\000\000\000\000\000\000\000@\000\000\000\000\000\000\000D\001\000\000\000\000\000\000\000\000\000\000\000\000\000\000\001\000\000\000\000\000\000\000\000\000\000\000\000\000\000\000\013\000\000\000\003\000\000\000\000\000\000\000\000\000\000\000\000\000\000\000\000\000\000\000\204\001\000\000\000\000\000\000L\002\000\000\000\000\000\000\000\000\000\000\000\000\000\000\001\000\000\000\000\000\000\000\000\000\000\000\000\000\000\000\023\000\000\000\002\000\000\000\000\000\000\000\000\000\000\000\000\000\000\000\000\000\000\000\320\003\000\000\000\000\000\000\300\000\000\000\000\000\000\000\002\000\000\000\006\000\000\000\b\000\000\000\000\000\000\000\030\000\000\000\000\000\000\000\370\000\000\000\001\000\000\000\000\000\000\000\000\000\000\000\000\000\000\000\000\000\000\000\220\004\000\000\000\000\000\000p\000\000\000\000\000\000\000\000\000\000\000\000\000\000\000\001\000\000\000\000\000\000\000\000\000\000\000\000\000\000\000)\000\000\000\000\000\000p\000\000\000\000\000\000\000\000\000\000\000\000\000\000\000\000\000\005\000\000\000\000\000\000$\000\000\000\000\000\000\000\003\000\000\000\000\000\000\000\004\000\000\000\000\000\000\000\000\000\000\000\000\000\000\000M\000\000\000\000\000\000p\000\000\000\000\000\000\000\000\000\000\000\000\000\000\000\000$\005\000\000\000\000\000\000t\001\000\000\000\000\000\000\003\000\000\000\013\000\000\000\004\000\000\000\000\000\000\000\000\000\000\000\000\000\000\0005\001\000\000\013\000\000p\000\000\000\000\000\000\000\000\000\000\000\000\000\000\000\000\230\006\000\000\000\000\000\000\320\000\000\000\000\000\000\000\000\000\000\000\000\000\000\000\b\000\000\000\000\000\000\000\b\000\000\000\000\000\000\000$\001\000\000\t\000\000\000\000\000\000\000\000\000\000\000\000\000\000\000\000\000\000\000h\007\000\000\000\000\000\000\020\000\000\000\000\000\000\000\003\000\000\000\004\000\000\000\b\000\000\000\000\000\000\000\020\000\000\000\000\000\000\000\213\000\000\000\001\000\000\000\002\000\000\000\000\000\000\000\000\000\000\000\000\000\000\000x\007\000\000\000\000\000\0000\000\000\000\000\000\000\000\000\000\000\000\013\000\000\000\b\000\000\000\000\000\000\000\000\000\000\000\000\000\000\000\256\000\000\000\001\000\000\000\002\000\000\000\000\000\000\000\000\000\000\000\000\000\000\000\250\007\000\000\000\000\000\000\360\001\000\000\000\000\000\000\000\000\000\000\013\000\000\000\004\000\000\000\000\000\000\000\000\000\000\000\000\000\000\0002\000\000\000\001\000\000\000\006\000\020\000\000\000\000\000\000\000\000\000\000\000\000\000\000\n\000\000\000\000\000\000\000\026\000\000\000\000\000\000\003\000\000\000\007\000\000&\200\000\000\000\000\000\000\000\000\000\000\000\000\000\000\000k\000\000\000\b\000\000\000\003\000\000\000\000\000\000\000\000\000\000\000\000\000\000\000\000 \000\000\000\000\000\000@\037\000\000\000\000\000\000\000\000\000\000\013\000\000\000\b\000\000\000\000\000\000\000\000\000\000\000\000\000\000\000\006\000\000\000\005\000\000\000@#\000\000\000\000\000\000\000\000\000\000\000\000\000\000\000\000\000\000\000\000\000\000\250\000\000\000\000\000\000\000\250\000\000\000\000\000\000\000\b\000\000\000\000\000\000\000\001\000\000\000\005\000\000\000x\007\000\000\000\000\000\000\000\000\000\000\000\000\000\000\000\000\000\000\000\000\000\000\210\030\000\000\000\000\000\000\210\030\000\000\000\000\000\000\b\000\000\000\000\000\000\000\001\000\000\000\006\000\000\000\000 \000\000\000\000\000\000\000\000\000\000\000\000\000\000\000\000\000\000\000\000\000\000\000\000\000\000\000\000\000\000@\037\000\000\000\000\000\000\b\000\000\000\000\000\000"
	.size	stencil_3d7pt_kernel_gpubin_cst, 9192

	.section	".note.GNU-stack","",@progbits