	.text
	.file	"LLVMDialectModule"
	.globl	stencil_3d27pt_box              # -- Begin function stencil_3d27pt_box
	.p2align	4, 0x90
	.type	stencil_3d27pt_box,@function
stencil_3d27pt_box:                     # @stencil_3d27pt_box
.Lfunc_begin0:
	.file	1 "/ssd/sub/workspace/UHStencil/examples/3d27pt_box" "3d27pt_llvm.mlir"
	.loc	1 4 0                           # 3d27pt_llvm.mlir:4:0
	.cfi_startproc
# %bb.0:
	pushq	%rbp
	.cfi_def_cfa_offset 16
	pushq	%r15
	.cfi_def_cfa_offset 24
	pushq	%r14
	.cfi_def_cfa_offset 32
	pushq	%r13
	.cfi_def_cfa_offset 40
	pushq	%r12
	.cfi_def_cfa_offset 48
	pushq	%rbx
	.cfi_def_cfa_offset 56
	subq	$312, %rsp                      # imm = 0x138
	.cfi_def_cfa_offset 368
	.cfi_offset %rbx, -56
	.cfi_offset %r12, -48
	.cfi_offset %r13, -40
	.cfi_offset %r14, -32
	.cfi_offset %r15, -24
	.cfi_offset %rbp, -16
	movq	%r9, (%rsp)                     # 8-byte Spill
	movq	%r8, %r13
	movq	%rcx, %rbp
	movq	%rdx, %r15
	movq	%rsi, %r14
	movq	%rdi, %r12
.Ltmp0:
	.loc	1 46 11 prologue_end            # 3d27pt_llvm.mlir:46:11
	movl	$stencil_3d27pt_box_kernel_gpubin_cst, %edi
	callq	mgpuModuleLoad@PLT
	movq	%rax, 16(%rsp)                  # 8-byte Spill
	.loc	1 50 11                         # 3d27pt_llvm.mlir:50:11
	movl	$stencil_3d27pt_box_kernel_stencil_3d27pt_box_kernel_kernel_name, %esi
	movq	%rax, %rdi
	callq	mgpuModuleGetFunction@PLT
	movq	%rax, 8(%rsp)                   # 8-byte Spill
	.loc	1 52 11                         # 3d27pt_llvm.mlir:52:11
	callq	mgpuStreamCreate@PLT
	movq	%rax, %rbx
	.loc	1 78 5                          # 3d27pt_llvm.mlir:78:5
	movq	%r12, 24(%rsp)
	leaq	24(%rsp), %rax
	.loc	1 81 5                          # 3d27pt_llvm.mlir:81:5
	movq	%rax, 168(%rsp)
	.loc	1 84 5                          # 3d27pt_llvm.mlir:84:5
	movq	%r14, 32(%rsp)
	.loc	1 83 11                         # 3d27pt_llvm.mlir:83:11
	leaq	32(%rsp), %rax
	.loc	1 87 5                          # 3d27pt_llvm.mlir:87:5
	movq	%rax, 176(%rsp)
	.loc	1 90 5                          # 3d27pt_llvm.mlir:90:5
	movq	%r15, 40(%rsp)
	.loc	1 89 11                         # 3d27pt_llvm.mlir:89:11
	leaq	40(%rsp), %rax
	.loc	1 93 5                          # 3d27pt_llvm.mlir:93:5
	movq	%rax, 184(%rsp)
	.loc	1 96 5                          # 3d27pt_llvm.mlir:96:5
	movq	%rbp, 48(%rsp)
	.loc	1 95 11                         # 3d27pt_llvm.mlir:95:11
	leaq	48(%rsp), %rax
	.loc	1 99 5                          # 3d27pt_llvm.mlir:99:5
	movq	%rax, 192(%rsp)
	.loc	1 102 5                         # 3d27pt_llvm.mlir:102:5
	movq	%r13, 56(%rsp)
	.loc	1 101 11                        # 3d27pt_llvm.mlir:101:11
	leaq	56(%rsp), %rax
	.loc	1 105 5                         # 3d27pt_llvm.mlir:105:5
	movq	%rax, 200(%rsp)
	movq	(%rsp), %rax                    # 8-byte Reload
	.loc	1 108 5                         # 3d27pt_llvm.mlir:108:5
	movq	%rax, 64(%rsp)
	.loc	1 107 11                        # 3d27pt_llvm.mlir:107:11
	leaq	64(%rsp), %rax
	.loc	1 111 5                         # 3d27pt_llvm.mlir:111:5
	movq	%rax, 208(%rsp)
	.loc	1 114 5                         # 3d27pt_llvm.mlir:114:5
	movq	368(%rsp), %rax
	movq	%rax, 72(%rsp)
	.loc	1 113 11                        # 3d27pt_llvm.mlir:113:11
	leaq	72(%rsp), %rax
	.loc	1 117 5                         # 3d27pt_llvm.mlir:117:5
	movq	%rax, 216(%rsp)
	.loc	1 120 5                         # 3d27pt_llvm.mlir:120:5
	movq	376(%rsp), %rax
	movq	%rax, 80(%rsp)
	.loc	1 119 12                        # 3d27pt_llvm.mlir:119:12
	leaq	80(%rsp), %rax
	.loc	1 123 5                         # 3d27pt_llvm.mlir:123:5
	movq	%rax, 224(%rsp)
	.loc	1 126 5                         # 3d27pt_llvm.mlir:126:5
	movq	384(%rsp), %rax
	movq	%rax, 88(%rsp)
	.loc	1 125 12                        # 3d27pt_llvm.mlir:125:12
	leaq	88(%rsp), %rax
	.loc	1 129 5                         # 3d27pt_llvm.mlir:129:5
	movq	%rax, 232(%rsp)
	.loc	1 132 5                         # 3d27pt_llvm.mlir:132:5
	movq	392(%rsp), %rax
	movq	%rax, 96(%rsp)
	.loc	1 131 12                        # 3d27pt_llvm.mlir:131:12
	leaq	96(%rsp), %rax
	.loc	1 135 5                         # 3d27pt_llvm.mlir:135:5
	movq	%rax, 240(%rsp)
	.loc	1 138 5                         # 3d27pt_llvm.mlir:138:5
	movq	400(%rsp), %rax
	movq	%rax, 104(%rsp)
	.loc	1 137 12                        # 3d27pt_llvm.mlir:137:12
	leaq	104(%rsp), %rax
	.loc	1 141 5                         # 3d27pt_llvm.mlir:141:5
	movq	%rax, 248(%rsp)
	.loc	1 144 5                         # 3d27pt_llvm.mlir:144:5
	movq	408(%rsp), %rax
	movq	%rax, 112(%rsp)
	.loc	1 143 12                        # 3d27pt_llvm.mlir:143:12
	leaq	112(%rsp), %rax
	.loc	1 147 5                         # 3d27pt_llvm.mlir:147:5
	movq	%rax, 256(%rsp)
	.loc	1 150 5                         # 3d27pt_llvm.mlir:150:5
	movq	416(%rsp), %rax
	movq	%rax, 120(%rsp)
	.loc	1 149 12                        # 3d27pt_llvm.mlir:149:12
	leaq	120(%rsp), %rax
	.loc	1 153 5                         # 3d27pt_llvm.mlir:153:5
	movq	%rax, 264(%rsp)
	.loc	1 156 5                         # 3d27pt_llvm.mlir:156:5
	movq	424(%rsp), %rax
	movq	%rax, 128(%rsp)
	.loc	1 155 12                        # 3d27pt_llvm.mlir:155:12
	leaq	128(%rsp), %rax
	.loc	1 159 5                         # 3d27pt_llvm.mlir:159:5
	movq	%rax, 272(%rsp)
	.loc	1 162 5                         # 3d27pt_llvm.mlir:162:5
	movq	432(%rsp), %rax
	movq	%rax, 136(%rsp)
	.loc	1 161 12                        # 3d27pt_llvm.mlir:161:12
	leaq	136(%rsp), %rax
	.loc	1 165 5                         # 3d27pt_llvm.mlir:165:5
	movq	%rax, 280(%rsp)
	.loc	1 168 5                         # 3d27pt_llvm.mlir:168:5
	movq	440(%rsp), %rax
	movq	%rax, 144(%rsp)
	.loc	1 167 12                        # 3d27pt_llvm.mlir:167:12
	leaq	144(%rsp), %rax
	.loc	1 171 5                         # 3d27pt_llvm.mlir:171:5
	movq	%rax, 288(%rsp)
	.loc	1 174 5                         # 3d27pt_llvm.mlir:174:5
	movq	448(%rsp), %rax
	movq	%rax, 152(%rsp)
	.loc	1 173 12                        # 3d27pt_llvm.mlir:173:12
	leaq	152(%rsp), %rax
	.loc	1 177 5                         # 3d27pt_llvm.mlir:177:5
	movq	%rax, 296(%rsp)
	.loc	1 180 5                         # 3d27pt_llvm.mlir:180:5
	movq	456(%rsp), %rax
	movq	%rax, 160(%rsp)
	.loc	1 179 12                        # 3d27pt_llvm.mlir:179:12
	leaq	160(%rsp), %rax
	.loc	1 183 5                         # 3d27pt_llvm.mlir:183:5
	movq	%rax, 304(%rsp)
	.loc	1 185 12                        # 3d27pt_llvm.mlir:185:12
	subq	$8, %rsp
	.cfi_adjust_cfa_offset 8
	leaq	176(%rsp), %rax
	movl	$4, %esi
	movl	$8, %edx
	movl	$1, %ecx
	movl	$1, %r8d
	movl	$1, %r9d
	movq	16(%rsp), %rdi                  # 8-byte Reload
	pushq	$0
	.cfi_adjust_cfa_offset 8
	pushq	%rax
	.cfi_adjust_cfa_offset 8
	pushq	%rbx
	.cfi_adjust_cfa_offset 8
	pushq	$0
	.cfi_adjust_cfa_offset 8
	pushq	$8
	.cfi_adjust_cfa_offset 8
	callq	mgpuLaunchKernel@PLT
	addq	$48, %rsp
	.cfi_adjust_cfa_offset -48
	.loc	1 186 12                        # 3d27pt_llvm.mlir:186:12
	movq	%rbx, %rdi
	callq	mgpuStreamSynchronize@PLT
	.loc	1 187 12                        # 3d27pt_llvm.mlir:187:12
	movq	%rbx, %rdi
	callq	mgpuStreamDestroy@PLT
	movq	16(%rsp), %rdi                  # 8-byte Reload
	.loc	1 188 12                        # 3d27pt_llvm.mlir:188:12
	callq	mgpuModuleUnload@PLT
	.loc	1 189 5                         # 3d27pt_llvm.mlir:189:5
	addq	$312, %rsp                      # imm = 0x138
	.cfi_def_cfa_offset 56
	popq	%rbx
	.cfi_def_cfa_offset 48
	popq	%r12
	.cfi_def_cfa_offset 40
	popq	%r13
	.cfi_def_cfa_offset 32
	popq	%r14
	.cfi_def_cfa_offset 24
	popq	%r15
	.cfi_def_cfa_offset 16
	popq	%rbp
	.cfi_def_cfa_offset 8
	retq
.Ltmp1:
.Lfunc_end0:
	.size	stencil_3d27pt_box, .Lfunc_end0-stencil_3d27pt_box
	.cfi_endproc
                                        # -- End function
	.globl	_mlir_ciface_stencil_3d27pt_box # -- Begin function _mlir_ciface_stencil_3d27pt_box
	.p2align	4, 0x90
	.type	_mlir_ciface_stencil_3d27pt_box,@function
_mlir_ciface_stencil_3d27pt_box:        # @_mlir_ciface_stencil_3d27pt_box
.Lfunc_begin1:
	.loc	1 191 0                         # 3d27pt_llvm.mlir:191:0
	.cfi_startproc
# %bb.0:
	pushq	%rax
	.cfi_def_cfa_offset 16
	movq	%rsi, %rax
	movq	%rdi, %r10
.Ltmp2:
	.loc	1 192 10 prologue_end           # 3d27pt_llvm.mlir:192:10
	movq	40(%rdi), %r9
	movq	32(%rdi), %r8
	movq	24(%rdi), %rcx
	movq	16(%rdi), %rdx
	movq	(%rdi), %rdi
	movq	8(%r10), %rsi
	.loc	1 212 5                         # 3d27pt_llvm.mlir:212:5
	pushq	64(%rax)
	.cfi_adjust_cfa_offset 8
	pushq	56(%rax)
	.cfi_adjust_cfa_offset 8
	pushq	48(%rax)
	.cfi_adjust_cfa_offset 8
	pushq	40(%rax)
	.cfi_adjust_cfa_offset 8
	pushq	32(%rax)
	.cfi_adjust_cfa_offset 8
	pushq	24(%rax)
	.cfi_adjust_cfa_offset 8
	pushq	16(%rax)
	.cfi_adjust_cfa_offset 8
	pushq	8(%rax)
	.cfi_adjust_cfa_offset 8
	pushq	(%rax)
	.cfi_adjust_cfa_offset 8
	pushq	64(%r10)
	.cfi_adjust_cfa_offset 8
	pushq	56(%r10)
	.cfi_adjust_cfa_offset 8
	pushq	48(%r10)
	.cfi_adjust_cfa_offset 8
	callq	stencil_3d27pt_box@PLT
	addq	$96, %rsp
	.cfi_adjust_cfa_offset -96
	.loc	1 213 5                         # 3d27pt_llvm.mlir:213:5
	popq	%rax
	.cfi_def_cfa_offset 8
	retq
.Ltmp3:
.Lfunc_end1:
	.size	_mlir_ciface_stencil_3d27pt_box, .Lfunc_end1-_mlir_ciface_stencil_3d27pt_box
	.cfi_endproc
                                        # -- End function
	.globl	stencil_3d27pt_box_iteration    # -- Begin function stencil_3d27pt_box_iteration
	.p2align	4, 0x90
	.type	stencil_3d27pt_box_iteration,@function
stencil_3d27pt_box_iteration:           # @stencil_3d27pt_box_iteration
.Lfunc_begin2:
	.loc	1 215 0                         # 3d27pt_llvm.mlir:215:0
	.cfi_startproc
# %bb.0:
	pushq	%rbp
	.cfi_def_cfa_offset 16
	pushq	%r15
	.cfi_def_cfa_offset 24
	pushq	%r14
	.cfi_def_cfa_offset 32
	pushq	%r13
	.cfi_def_cfa_offset 40
	pushq	%r12
	.cfi_def_cfa_offset 48
	pushq	%rbx
	.cfi_def_cfa_offset 56
	subq	$24, %rsp
	.cfi_def_cfa_offset 80
	.cfi_offset %rbx, -56
	.cfi_offset %r12, -48
	.cfi_offset %r13, -40
	.cfi_offset %r14, -32
	.cfi_offset %r15, -24
	.cfi_offset %rbp, -16
	movq	%r9, %r15
	movq	%r8, %r14
	movq	%rcx, %r13
	movq	%rdx, %r12
	movq	%rsi, 8(%rsp)                   # 8-byte Spill
	movq	%rdi, 16(%rsp)                  # 8-byte Spill
	movq	112(%rsp), %rbp
.Ltmp4:
	.loc	1 254 5 prologue_end            # 3d27pt_llvm.mlir:254:5
	pushq	168(%rsp)
	.cfi_adjust_cfa_offset 8
	pushq	168(%rsp)
	.cfi_adjust_cfa_offset 8
	pushq	168(%rsp)
	.cfi_adjust_cfa_offset 8
	pushq	168(%rsp)
	.cfi_adjust_cfa_offset 8
	pushq	168(%rsp)
	.cfi_adjust_cfa_offset 8
	pushq	168(%rsp)
	.cfi_adjust_cfa_offset 8
	pushq	168(%rsp)
	.cfi_adjust_cfa_offset 8
	pushq	%rbp
	.cfi_adjust_cfa_offset 8
	pushq	168(%rsp)
	.cfi_adjust_cfa_offset 8
	pushq	168(%rsp)
	.cfi_adjust_cfa_offset 8
	pushq	168(%rsp)
	.cfi_adjust_cfa_offset 8
	movq	168(%rsp), %rbx
	pushq	%rbx
	.cfi_adjust_cfa_offset 8
	callq	stencil_3d27pt_box@PLT
	addq	$96, %rsp
	.cfi_adjust_cfa_offset -96
	.loc	1 273 5                         # 3d27pt_llvm.mlir:273:5
	movq	104(%rsp), %rdi
	movq	%rbp, %rsi
	movq	120(%rsp), %rdx
	movq	128(%rsp), %rcx
	movq	136(%rsp), %r8
	movq	144(%rsp), %r9
	pushq	96(%rsp)
	.cfi_adjust_cfa_offset 8
	pushq	96(%rsp)
	.cfi_adjust_cfa_offset 8
	pushq	%rbx
	.cfi_adjust_cfa_offset 8
	pushq	%r15
	.cfi_adjust_cfa_offset 8
	pushq	%r14
	.cfi_adjust_cfa_offset 8
	pushq	%r13
	.cfi_adjust_cfa_offset 8
	pushq	%r12
	.cfi_adjust_cfa_offset 8
	pushq	64(%rsp)                        # 8-byte Folded Reload
	.cfi_adjust_cfa_offset 8
	pushq	80(%rsp)                        # 8-byte Folded Reload
	.cfi_adjust_cfa_offset 8
	pushq	240(%rsp)
	.cfi_adjust_cfa_offset 8
	pushq	240(%rsp)
	.cfi_adjust_cfa_offset 8
	pushq	240(%rsp)
	.cfi_adjust_cfa_offset 8
	callq	stencil_3d27pt_box@PLT
	addq	$120, %rsp
	.cfi_adjust_cfa_offset -120
	.loc	1 274 5                         # 3d27pt_llvm.mlir:274:5
	popq	%rbx
	.cfi_def_cfa_offset 48
	popq	%r12
	.cfi_def_cfa_offset 40
	popq	%r13
	.cfi_def_cfa_offset 32
	popq	%r14
	.cfi_def_cfa_offset 24
	popq	%r15
	.cfi_def_cfa_offset 16
	popq	%rbp
	.cfi_def_cfa_offset 8
	retq
.Ltmp5:
.Lfunc_end2:
	.size	stencil_3d27pt_box_iteration, .Lfunc_end2-stencil_3d27pt_box_iteration
	.cfi_endproc
                                        # -- End function
	.globl	_mlir_ciface_stencil_3d27pt_box_iteration # -- Begin function _mlir_ciface_stencil_3d27pt_box_iteration
	.p2align	4, 0x90
	.type	_mlir_ciface_stencil_3d27pt_box_iteration,@function
_mlir_ciface_stencil_3d27pt_box_iteration: # @_mlir_ciface_stencil_3d27pt_box_iteration
.Lfunc_begin3:
	.loc	1 276 0                         # 3d27pt_llvm.mlir:276:0
	.cfi_startproc
# %bb.0:
	pushq	%rax
	.cfi_def_cfa_offset 16
	movq	%rsi, %rax
	movq	%rdi, %r10
.Ltmp6:
	.loc	1 277 10 prologue_end           # 3d27pt_llvm.mlir:277:10
	movq	40(%rdi), %r9
	movq	32(%rdi), %r8
	movq	24(%rdi), %rcx
	movq	16(%rdi), %rdx
	movq	(%rdi), %rdi
	movq	8(%r10), %rsi
	.loc	1 297 5                         # 3d27pt_llvm.mlir:297:5
	pushq	64(%rax)
	.cfi_adjust_cfa_offset 8
	pushq	56(%rax)
	.cfi_adjust_cfa_offset 8
	pushq	48(%rax)
	.cfi_adjust_cfa_offset 8
	pushq	40(%rax)
	.cfi_adjust_cfa_offset 8
	pushq	32(%rax)
	.cfi_adjust_cfa_offset 8
	pushq	24(%rax)
	.cfi_adjust_cfa_offset 8
	pushq	16(%rax)
	.cfi_adjust_cfa_offset 8
	pushq	8(%rax)
	.cfi_adjust_cfa_offset 8
	pushq	(%rax)
	.cfi_adjust_cfa_offset 8
	pushq	64(%r10)
	.cfi_adjust_cfa_offset 8
	pushq	56(%r10)
	.cfi_adjust_cfa_offset 8
	pushq	48(%r10)
	.cfi_adjust_cfa_offset 8
	callq	stencil_3d27pt_box_iteration@PLT
	addq	$96, %rsp
	.cfi_adjust_cfa_offset -96
	.loc	1 298 5                         # 3d27pt_llvm.mlir:298:5
	popq	%rax
	.cfi_def_cfa_offset 8
	retq
.Ltmp7:
.Lfunc_end3:
	.size	_mlir_ciface_stencil_3d27pt_box_iteration, .Lfunc_end3-_mlir_ciface_stencil_3d27pt_box_iteration
	.cfi_endproc
                                        # -- End function
	.type	stencil_3d27pt_box_kernel_stencil_3d27pt_box_kernel_kernel_name,@object # @stencil_3d27pt_box_kernel_stencil_3d27pt_box_kernel_kernel_name
	.section	.rodata,"a",@progbits
	.p2align	4
stencil_3d27pt_box_kernel_stencil_3d27pt_box_kernel_kernel_name:
	.asciz	"stencil_3d27pt_box_kernel"
	.size	stencil_3d27pt_box_kernel_stencil_3d27pt_box_kernel_kernel_name, 26

	.type	stencil_3d27pt_box_kernel_gpubin_cst,@object # @stencil_3d27pt_box_kernel_gpubin_cst
	.p2align	4
stencil_3d27pt_box_kernel_gpubin_cst:
	.asciz	"\177ELF\002\001\0013\007\000\000\000\000\000\000\000\002\000\276\000q\000\000\000\000\000\000\000\000\000\000\000\000\032\000\000\000\000\000\000\000\027\000\000\000\000\000\000F\005#\000@\0008\000\003\000@\000\f\000\001\000\000.shstrtab\000.strtab\000.symtab\000.symtab_shndx\000.nv.info\000.text.stencil_3d27pt_box_kernel\000.nv.info.stencil_3d27pt_box_kernel\000.nv.shared.stencil_3d27pt_box_kernel\000.nv.constant2.stencil_3d27pt_box_kernel\000.nv.constant0.stencil_3d27pt_box_kernel\000.rel.nv.constant0.stencil_3d27pt_box_kernel\000.debug_frame\000.rel.text.stencil_3d27pt_box_kernel\000.rel.debug_frame\000.nv.rel.action\000\000.shstrtab\000.strtab\000.symtab\000.symtab_shndx\000.nv.info\000stencil_3d27pt_box_kernel\000.text.stencil_3d27pt_box_kernel\000.nv.info.stencil_3d27pt_box_kernel\000.nv.shared.stencil_3d27pt_box_kernel\000.nv.constant2.stencil_3d27pt_box_kernel\000stencil_3d27pt_box_kernel.const2.0.8\000stencil_3d27pt_box_kernel.const2.8.16\000stencil_3d27pt_box_kernel.const2.16.24\000stencil_3d27pt_box_kernel.const2.24.32\000stencil_3d27pt_box_kernel.const2.32.40\000stencil_3d27pt_box_kernel.const2.40.48\000stencil_3d27pt_box_kernel.const2.48.56\000stencil_3d27pt_box_kernel.const2.56.64\000.rel.nv.constant0.stencil_3d27pt_box_kernel\000.nv.constant0.stencil_3d27pt_box_kernel\000_param\000.debug_frame\000.rel.text.stencil_3d27pt_box_kernel\000.rel.debug_frame\000.nv.rel.action\000\000\000\000\000\000\000\000\000\000\000\000\000\000\000\000\000\000\000\000\000\000\000\000\000\000\000\000\000L\000\000\000\003\000\013\000\000\000\000\000\000\000\000\000\000\000\000\000\000\000\000\000\264\000\000\000\003\000\t\000\000\000\000\000\000\000\000\000\000\000\000\000\000\000\000\000=\002\000\000\003\000\n\000\000\000\000\000\000\000\000\000\000\000\000\000\000\000\000\000l\002\000\000\003\000\004\000\000\000\000\000\000\000\000\000\000\000\000\000\000\000\000\000\256\002\000\000\003\000\007\000\000\000\000\000\000\000\000\000\000\000\000\000\000\000\000\0002\000\000\000\022\020\013\000\000\000\000\000\000\000\000\000\200\f\000\000\000\000\000\000\377\377\377\377(\000\000\000\000\000\000\000\377\377\377\377\377\377\377\377\003\000\004|\377\377\377\377\017\f\201\200\200(\000\b\377\201\200(\b\201\200\200(\000\000\000\000\000\000\000\377\377\377\3770\000\000\000\000\000\000\000\000\000\000\000\000\000\000\000\000\000\000\000\000\000\000\000p\f\000\000\000\000\000\000\004\004\000\000\000\004\240\000\000\000\f\201\200\200(\000\004\\\002\000\000\000\000\000\004\021\b\000\006\000\000\000\000\000\000\000\004/\b\000\006\000\000\000-\000\000\000\004\022\b\000\006\000\000\000\000\000\000\000\004\036\004\000\000\000\000\000\001\004\000\000\004\034\b\000\200\002\000\000\000\f\000\000\0041\f\000\020\000\000\000\000\003\000\000P\004\000\000\003\033\377\000\004\027\f\000\000\000\000\000\000\000\000\000\000\360!\000\004\027\f\000\000\000\000\000\001\000\b\000\000\360!\000\004\027\f\000\000\000\000\000\002\000\020\000\000\360!\000\004\027\f\000\000\000\000\000\003\000\030\000\000\360!\000\004\027\f\000\000\000\000\000\004\000 \000\000\360!\000\004\027\f\000\000\000\000\000\005\000(\000\000\360!\000\004\027\f\000\000\000\000\000\006\0000\000\000\360!\000\004\027\f\000\000\000\000\000\007\0008\000\000\360!\000\004\027\f\000\000\000\000\000\b\000@\000\000\360!\000\004\027\f\000\000\000\000\000\t\000H\000\000\360!\000\004\027\f\000\000\000\000\000\n\000P\000\000\360!\000\004\027\f\000\000\000\000\000\013\000X\000\000\360!\000\004\027\f\000\000\000\000\000\f\000`\000\000\360!\000\004\027\f\000\000\000\000\000\r\000h\000\000\360!\000\004\027\f\000\000\000\000\000\016\000p\000\000\360!\000\004\027\f\000\000\000\000\000\017\000x\000\000\360!\000\004\027\f\000\000\000\000\000\020\000\200\000\000\360!\000\004\027\f\000\000\000\000\000\021\000\210\000\000\360!\000\003\031\220\000\004\n\b\000\003\000\000\000`\001\220\000\0047\004\000q\000\000\000\0046\004\000\001\000\000\000K\000\000\000\000\000\000\000\000\002\002\b\020\n/\"\000\000\000\b\000\000\000\000\000\000\b\b\000\000\000\000\000\000\020\b\000\000\000\000\000\000\030\b\000\000\000\000\000\000 \b\000\000\000\000\000\000(\b\000\000\000\000\000\0000\b\000\000\000\000\000\0008\b\000\000\000\000\001\000\000\b\000\000\000\000\001\000\b\b\000\000\000\000\001\000\020\b\000\000\000\000\001\000\030\b\000\000\000\000\001\000 \b\000\000\000\000\001\000(\b\000\000\000\000\001\0000\b\000\000\000\000\001\0008\b\000\000\000\000\002\000\000\b\000\000\000\000\002\000\b\b\000\000\000\000\002\000\020\b\000\000\000\000\002\000\030\b\000\000\000\000\002\000 \b\000\000\000\000\002\000(\b\000\000\000\000\002\0000\b\000\000\000\000\002\0008\b\000\000\000\000\000\000\000\024,\000\000\000H\000\000\000\000\000\000\000\002\000\000\000\006\000\000\000\232\231\231\231\231\231\271?\232\231\231\231\231\231\311?333333\323?\232\231\231\231\231\231\331?333333\343?ffffff\346?\232\231\231\231\231\231\351?\315\314\314\314\314\314\354?\000\000\000\000\000\000\000\000\000\000\000\000\000\000\000\000\000\000\000\000\000\000\000\000\000\000\000\000\000\000\000\000\000\000\000\000\000\000\000\000\000\000\000\000\000\000\000\000\000\000\000\000\000\000\000\000\000\000\000\000\000\000\000\000\000\000\000\000\000\000\000\000\000\000\000\000\000\000\000\000\000\000\000\000\000\000\000\000\000\000\000\000\000\000\000\000\000\000\000\000\000\000\000\000\000\000\000\000\000\000\000\000\000\000\000\000\000\000\000\000\000\000\000\000\000\000\000\000\000\000\000\000\000\000\000\000\000\000\000\000\000\000\000\000\000\000\000\000\000\000\000\000\000\000\000\000\000\000\000\000\000\000\000\000\000\000\000\000\000\000\000\000\000\000\000\000\000\000\000\000\000\000\000\000\000\000\000\000\000\000\000\000\000\000\000\000\000\000\000\000\000\000\000\000\000\000\000\000\000\000\000\000\000\000\000\000\000\000\000\000\000\000\000\000\000\000\000\000\000\000\000\000\000\000\000\000\000\000\000\000\000\000\000\000\000\000\000\000\000\000\000\000\000\000\000\000\000\000\000\000\000\000\000\000\000\000\000\000\000\000\000\000\000\000\000\000\000\000\000\000\000\000\000\000\000\000\000\000\000\000\000\000\000\000\000\000\000\000\000\000\000\000\000\000\000\000\000\000\000\000\000\000\000\000\000\000\000\000\000\000\000\000\000\000\000\000\000\000\000\000\000\000\000\000\000\000\000\000\000\000\000\000\000\000\000\000\000\000\000\000\000\000\000\000\000\000\000\000\000\000\000\000\000\000\000\000\000\000\000\000\000\000\000\000\000\000\000\000\000\000\000\000\000\000\000\000\000\000\000\000\000\000\000\000\000\000\000\000\000\000\000\000\000\000\000\000\000\000\000\000\000\000\000\000\000\000\000\000\000\000\000\000\000\000\000\000\000\000\000\000\000\000\000\000\000\000\000\000\000\000\000\000\000\000\000\000\000\000\000\000\000\000\000\000\000\000\000\000\000\000\000\000\000\000\000\000\000\000\000\000\000\000\000\000\000\000\000\000\000\000\000\000\000\000\000\000\000\000\000\000\000\000\000\000\000\000\000\000\000\000\000\000\000\000\000\000\000\000\000\000\000\000\000\000\000\000\000\000\000\000\000\000\000\000\000\000\000\000\000\000\000\000\000\000\000\000\000\000\000\000\000\000\000\000\000\000\000\000\000\000\000\000\000\000\000\000\000\000\000\000\000\000\000\000\000\000\000\000\000\000\000\000\000\000\000\000\000\000\000\000\000\000\000\000$v\001\377\000\n\000\000\377\000\216\007\000\304\017\000\211\363\377\377\377\000\000\000\377\000\016\000\000\342\017\000\031y\000\000\000\000\000\000\000&\000\000\000(\016\000\031y\003\000\000\000\000\000\000\"\000\000\000h\016\000\031y\t\000\000\000\000\000\000!\000\000\000\250\016\000\031y\004\000\000\000\000\000\000%\000\000\000\350\016\000\031y\b\000\000\000\000\000\000'\000\000\000(\017\000\031y\013\000\000\000\000\000\000#\000\000\000b\017\000\031x\005\377\037\000\000\000\000\024\001\000\000\304\037\000\031x\002\377\037\000\000\000\003\024\001\000\000\344/\000\020r\006\000\003\000\000\000\377\340\361\007\000\342\017\000$x\021\t@\000\000\000\377\000\216\007\000\342O\000\031x\n\377\037\000\000\000\t\024\001\000\000\306\017\000$x\f\005\001\000\000\000\002\006\016\000\000\342\017\000\031x\r\377\037\000\000\000\004\024\001\000\000\342\217\000%x\006\006@ \000\000\377\000\216\007\000\342\017\000\020r\017\004\t\000\000\000\377\340\363\007\000\344\017\000\031x\022\t\006\000\000\000\n\002\001\000\000\342\017\020$x\023\f@ \000\000\377\002\216\007\000\342\017\000\021r\016\004\021\000\000\000\3770\200\007\000\342\017\004$x\t\r\001\000\000\000\n\006\216\000\000\342\017\000\031x\n\377\037\000\000\000\013\024\001\000\000\342\017\002$x\007\007\001\000\000\000\023\002\216\007\000\342\017\000\021r\022\004\022\000\000\000\r4\017\000\000\342\017\000$x\021\t\000\001A\000\377\002\216\007\000\342\017\000\020x\004\016A\000\000\000\377\340\363\007\000\342\017\000%x\f\017\000\001A\000\006\000\216\007\000\342\017\000\031x\007\377\037\000\000\000\b\024\001\000\000\304\017\001\022x\017\016\001\000\000\000\377\374\216\007\000\342\017\000$x\t\013 \000\000\000\377\000\216\007\000\342\017\000\031x\006\b\b\000\000\000\007\002\001\000\000\342\017\004$r\007\377\377\000\000\000\022\006\216\000\000\342\017\000\fr\000\017\004\000\000\000p`\360\003\000\342\017\000$x\b\b\000\001\000\000\377\000\216\007\000\342\017\000\031x\013\013\005\000\000\000\n\002\001\000\000\342\017\000$x\r\r\001\000\000\000\021\002\216\007\000\342\017\000\fr\000\022\007\000\000\000\000c\360\003\000\344\017\000\020r\f\t\f\000\000\000\b\340\243\007\000\310\017\000\020r\r\013\r\000\000\000\006D\376\000\000\344\017\000\021x\016\f8(\b\000\377\030\202\007\000\310\017\000M\t\000\000\000\000\000\000\000\000\200\003\000\360\017\000\021r\020\f\377\000\000\000\r\034\217\000\000\342\017\000$r\r\377\377\000\000\000\017\000\216\007\000\342\017\000\020z\f\016\000Z\000\000\377\340\361\007\000\342\017\004$r\n\377\377\000\000\000\022\000\216\007\000\342\017\000\020z\016\016\000l\000\000\377\340\363\007\000\344\017\000\020z\017\020\000[\000\000\377\344\177\000\000\344\017\004\020z\020\020\000m\000\000\377\344\377\000\000\304\017\000\211\363\377\377\377\000\000\000\377\000\016\000\000\342\017\000$x\021\003 \000\000\000\377\000\216\007\000\342\017\004\031x\037\003\005\000\000\000\002\002\001\000\000\342\017\000Us\377\000\000\000\000\000\000\000\020\000\000\342\017\000\020x\r\r\001\000\000\000\377\340\363\007\000\342\017\000Ey\000\000P\b\000\000\000\000\200\003\000\342\017\000\021r\021\000\021\000\000\000\377(\200\007\000\306\017\000$r\n\377\377\000\000\000\n\006\216\000\000\342\017\000\022x \021\001\000\000\000\377\374\216\007\000\344\017\004\020x\021\021!\000\000\000\377\340\365\007\000\344\017\000\021r\037\000\037\000\000\000\005,\017\000\000\344\017\000\fr\000 \021\000\000\000p`\362\003\000\344\017\000\fr\000\r\004\000\000\000p`\360\003\000\342\017\000$r\036\377\377\000\000\000\037\006\016\001\000\306\017\000\fr\000\n\007\000\000\000\000c\360\003\000\344\017\000\fr\000\037\036\000\000\000\020c\362\003\000\330\017\000G\031\000\000\220\007\000\000\000\000\200\003\000\352\037\000$r!\377\377\000\000\000\016\000\216\007\000\344\017\000$r\"\377\377\000\000\000\020\000\216\007\000\344\017\000$r#\377\377\000\000\000\f\000\216\007\000\344\017\000$r$\377\377\000\000\000\017\000\216\007\000\304\017\000\211\363\377\377\377\000\000\000\377\000\016\000\000\342\017\000\020r%\t\b\000\000\000\377\340\363\007\000\342\017\000Us\377\001\000\000\000\000\000\000\020\000\000\342\017\000\020x  \001\000\000\000\377\340\365\007\000\342\017\000Ey\001\000\260\006\000\000\000\000\200\003\000\342\017\000\022x*%\001\000\000\000\377\374\216\007\000\342\017\000$x'\013\001\000\000\000\006\006\216\000\000\342\017\000\020x%%!\000\000\000\377\340\367\007\000\342\017\000$r\037\377\377\000\000\000\037\006\016\001\000\342\017\000\fr\000 \021\000\000\000p`\362\003\000\304\017\000\fr\000*%\000\000\000p`\364\003\000\342\017\000$r&\377\377\000\000\000'\006\216\001\000\342\017\000\fr\000\037\036\000\000\000\020c\362\003\000\310\017\000\fr\000'&\000\000\000 c\364\003\000\330\017\000G)\000\000\000\006\000\000\000\000\200\003\000\352\037\000$r(\377\377\000\000\000!\000\216\007\000\344\017\000$r)\377\377\000\000\000\"\000\216\007\000\344\017\000$r\022\377\377\000\000\000#\000\216\007\000\344\017\000$r\023\377\377\000\000\000$\000\216\007\000\320\017\000\200y\026\022\310\327\367\377\000\353\020\000\000\250\036\000\200y\024\022\320\327\367\377\000\353\020\000\000\350\016\000\200y\032\022\330\327\367\377\000\353\020\000\000(\017\000\200y\034\022\330\337\367\377\000\353\020\000\000h\017\000\200y\030\022\340\337\367\377\000\353\020\000\000b\017\000(z\026\026\000\000\200\000\000\000\000\000\000\310O\000(z\024\024\000\002\200\000\000\000\000\000\000\b\216\000(z\032\032\000\004\200\000\000\000\000\000\000\310\017\001)r\024\026\000\000\000\000\024\000\000\000\000d\020\000\200y\026\022\350\337\367\377\000\353\020\000\000\254\036\000)r\032\024\000\000\000\000\032\000\000\000\000\344!\000\200y\024\022\350\347\367\377\000\353\020\000\000\344\036\000(z\034\034\000\006\200\000\000\000\000\000\000\b\016\002(x\030\030\000\000\340?\000\000\000\000\000\310\017\000)r\034\032\000\000\000\000\034\000\000\000\000d\020\000\200y\032\022\360\347\367\377\000\353\020\000\000,\037\000)r\030\034\000\000\000\000\030\000\000\000\000\344!\000\200y\034\022\370\347\367\377\000\353\020\000\000d\037\000(z\026\026\000\b\200\000\000\000\000\000\000\020N\000)r\026\030\000\000\000\000\026\000\000\000\000\344\021\000\200y\030\022\350\367\377\377\000\353\020\000\000\244\036\000(z\024\024\000\n\200\000\000\000\000\000\000\020\216\000)r\024\026\000\000\000\000\024\000\000\000\000\344\021\000\200y\026\022\360\367\377\377\000\353\020\000\000\344\036\000(z\032\032\000\f\200\000\000\000\000\000\000\b\016\001(z\034\034\000\016\200\000\000\000\000\000\000\310\017\002)r\032\024\000\000\000\000\032\000\000\000\000d\020\000\200y\024\022\370\367\377\377\000\353\020\000\000,\037\000)r\034\032\000\000\000\000\034\000\000\000\000\344!\000\200y\032\022\370\377\377\377\000\353\020\000\000d\037\000(z\030\030\000\000\200\000\000\000\000\000\000\020N\000)r\030\034\000\000\000\000\030\000\000\000\000\344\021\000\200y\034\022\000\000\000\000\000\353\020\000\000\244\036\000(z\026\026\000\002\200\000\000\000\000\000\000\020\216\000)r\026\030\000\000\000\000\026\000\000\000\000\344\021\000\200y\030\022\b\000\000\000\000\353\020\000\000\344\036\000(z\024\024\000\004\200\000\000\000\000\000\000\020\016\001)r\024\026\000\000\000\000\024\000\000\000\000\344\021\000\200y\026\022\b\b\000\000\000\353\020\000\000$\037\000(z\032\032\000\006\200\000\000\000\000\000\000\020\016\002)r\032\024\000\000\000\000\032\000\000\000\000\344\021\000\200y\024\022\020\b\000\000\000\353\020\000\000d\037\000(x\034\034\000\000\340?\000\000\000\000\000\020N\000)r\034\032\000\000\000\000\034\000\000\000\000\344\021\000\200y\032\022\030\b\000\000\000\353\020\000\000\244\036\000(z\030\030\000\b\200\000\000\000\000\000\000\020\216\000)r\030\034\000\000\000\000\030\000\000\000\000\344\021\000\200y\034\022\b\030\b\000\000\353\020\000\000\344\036\000(z\026\026\000\n\200\000\000\000\000\000\000\020\016\001)r\026\030\000\000\000\000\026\000\000\000\000\344\021\000\200y\030\022\020\030\b\000\000\353\020\000\000$\037\000(z\024\024\000\f\200\000\000\000\000\000\000\020\016\002)r\024\026\000\000\000\000\024\000\000\000\000\344\021\000\200y\026\022\030\030\b\000\000\353\020\000\000d\037\000(z\032\032\000\016\200\000\000\000\000\000\000\020N\000)r\032\024\000\000\000\000\032\000\000\000\000\344\021\000\200y\024\022\030 \b\000\000\353\020\000\000\244\036\000(z\034\034\000\000\200\000\000\000\000\000\000\020\216\000)r\034\032\000\000\000\000\034\000\000\000\000\344\021\000\200y\032\022  \b\000\000\353\020\000\000\344\036\000(z\030\030\000\002\200\000\000\000\000\000\000\020\016\001)r\030\034\000\000\000\000\030\000\000\000\000\344\021\000\200y\034\022( \b\000\000\353\020\000\000$\037\000(z\026\026\000\004\200\000\000\000\000\000\000\020\016\002)r\026\030\000\000\000\000\026\000\000\000\000\344\021\000\200y\030\022((\b\000\000\353\020\000\000d\037\000(z\024\024\000\006\200\000\000\000\000\000\000\020N\000)r\024\026\000\000\000\000\024\000\000\000\000\344\021\000\200y\026\0220(\b\000\000\353\020\000\000\244\020\000(x\032\032\000\000\340?\000\000\000\000\000P\216\000)r\032\024\000\000\000\000\032\000\000\000\000\344#\000\200y\024\0228(\b\000\000\353\020\000\000\344 \000(z\034\034\000\b\200\000\000\000\000\000\000P\016\001)r\032\032\000\000\000\000\034\000\000\000\000\310/\000(z\030\030\000\n\200\000\000\000\000\000\000P\016\002)r\030\032\000\000\000\000\030\000\000\000\000\342/\000\020x**\001\000\000\000\377\340\365\007\000\312\017\000$r'\377\377\000\000\000'\006\016\001\000\342\017\000\fr\000*%\000\000\000p`\364\003\000\310\017\000\fr\000'&\000\000\000 c\364\003\000\344\017\000\020x\022\022\b\000\000\000\377\340\371\007\000\312\037\000$r\023\377\377\000\000\000\023\006\016\002\000\342\017\000(z\026\026\000\f\200\000\000\000\000\000\000\020N\000)r\026\030\000\000\000\000\026\000\000\000\000\310\037\000(z\024\024\000\016\200\000\000\000\000\000\000\020\216\000)r\026\026\000\000\000\000\024\000\000\000\000d\020\000$r\024\377\377\000\000\000(\000\216\007\000\344\037\000$r\025\377\377\000\000\000)\000\216\007\000\320\017\000\205s\000\024\000\000\000\000\026\353\020\000\000\342!\000\020x((\b\000\000\000\377\340\367\007\000\312\017\000$r)\377\377\000\000\000)\006\216\001\000\342\017\000G\251\000\000@\372\377\377\377\377\203\003\000\352\017\000Ay\001\000\000\000\000\000\000\000\200\003\000\352\017\000\020x##\020\b\000\000\377\340\365\007\000\344\017\000\020x!!\020\b\000\000\377\340\367\007\000\306\017\000$r$\377\377\000\000\000$\006\016\001\000\344\017\000$r\"\377\377\000\000\000\"\006\216\001\000\342\017\000G\231\000\000\260\370\377\377\377\377\203\003\000\352\017\000Ay\000\000\000\000\000\000\000\000\200\003\000\352\017\000\020x\f\f  \b\000\377\340\363\007\000\344\017\000\020x\016\016  \b\000\377\340\365\007\000\306\017\000$r\017\377\377\000\000\000\017\006\216\000\000\344\017\000$r\020\377\377\000\000\000\020\006\016\001\000\342\017\000G\211\000\000\000\367\377\377\377\377\203\003\000\352\017\000My\000\000\000\000\000\000\000\000\200\003\000\352\017\000Gy\000\000\360\377\377\377\377\377\203\003\000\300\017\000\030y\000\000\000\000\000\000\000\000\000\000\000\300\017\000\030y\000\000\000\000\000\000\000\000\000\000\000\300\017\000\030y\000\000\000\000\000\000\000\000\000\000\000\300\017\000\030y\000\000\000\000\000\000\000\000\000\000\000\300\017\000\030y\000\000\000\000\000\000\000\000\000\000\000\300\017\000\030y\000\000\000\000\000\000\000\000\000\000\000\300\017\000\000\000\000\000\000\000\000\000\000\000\000\000\000\000\000\000\000\000\000\000\000\000\000\000\000\000\000\000\000\000\000\000\000\000\000\000\000\000\000\000\000\000\000\000\000\000\000\000\000\000\000\000\000\000\000\000\000\000\000\000\000\000\000\000\001\000\000\000\003\000\000\000\000\000\000\000\000\000\000\000\000\000\000\000\000\000\000\000@\000\000\000\000\000\000\000g\001\000\000\000\000\000\000\000\000\000\000\000\000\000\000\001\000\000\000\000\000\000\000\000\000\000\000\000\000\000\000\013\000\000\000\003\000\000\000\000\000\000\000\000\000\000\000\000\000\000\000\000\000\000\000\247\001\000\000\000\000\000\000\275\002\000\000\000\000\000\000\000\000\000\000\000\000\000\000\001\000\000\000\000\000\000\000\000\000\000\000\000\000\000\000\023\000\000\000\002\000\000\000\000\000\000\000\000\000\000\000\000\000\000\000\000\000\000\000h\004\000\000\000\000\000\000\250\000\000\000\000\000\000\000\002\000\000\000\005\000\000\000\b\000\000\000\000\000\000\000\030\000\000\000\000\000\000\000\026\001\000\000\001\000\000\000\000\000\000\000\000\000\000\000\000\000\000\000\000\000\000\000\020\005\000\000\000\000\000\000p\000\000\000\000\000\000\000\000\000\000\000\000\000\000\000\001\000\000\000\000\000\000\000\000\000\000\000\000\000\000\000)\000\000\000\000\000\000p\000\000\000\000\000\000\000\000\000\000\000\000\000\000\000\000\200\005\000\000\000\000\000\000$\000\000\000\000\000\000\000\003\000\000\000\000\000\000\000\004\000\000\000\000\000\000\000\000\000\000\000\000\000\000\000R\000\000\000\000\000\000p\000\000\000\000\000\000\000\000\000\000\000\000\000\000\000\000\244\005\000\000\000\000\000\000l\001\000\000\000\000\000\000\003\000\000\000\013\000\000\000\004\000\000\000\000\000\000\000\000\000\000\000\000\000\000\000X\001\000\000\013\000\000p\000\000\000\000\000\000\000\000\000\000\000\000\000\000\000\000\020\007\000\000\000\000\000\000\330\000\000\000\000\000\000\000\000\000\000\000\000\000\000\000\b\000\000\000\000\000\000\000\b\000\000\000\000\000\000\000G\001\000\000\t\000\000\000\000\000\000\000\000\000\000\000\000\000\000\000\000\000\000\000\350\007\000\000\000\000\000\000\020\000\000\000\000\000\000\000\003\000\000\000\004\000\000\000\b\000\000\000\000\000\000\000\020\000\000\000\000\000\000\000\232\000\000\000\001\000\000\000\002\000\000\000\000\000\000\000\000\000\000\000\000\000\000\000\370\007\000\000\000\000\000\000@\000\000\000\000\000\000\000\000\000\000\000\013\000\000\000\b\000\000\000\000\000\000\000\000\000\000\000\000\000\000\000\302\000\000\000\001\000\000\000\002\000\000\000\000\000\000\000\000\000\000\000\000\000\000\0008\b\000\000\000\000\000\000\360\001\000\000\000\000\000\000\000\000\000\000\013\000\000\000\004\000\000\000\000\000\000\000\000\000\000\000\000\000\000\0002\000\000\000\001\000\000\000\006\000\000\000\000\000\000\000\000\000\000\000\000\000\000\000\200\n\000\000\000\000\000\000\200\f\000\000\000\000\000\000\003\000\000\000\006\000\000-\200\000\000\000\000\000\000\000\000\000\000\000\000\000\000\000\006\000\000\000\005\000\000\000\000\032\000\000\000\000\000\000\000\000\000\000\000\000\000\000\000\000\000\000\000\000\000\000\250\000\000\000\000\000\000\000\250\000\000\000\000\000\000\000\b\000\000\000\000\000\000\000\001\000\000\000\005\000\000\000\370\007\000\000\000\000\000\000\000\000\000\000\000\000\000\000\000\000\000\000\000\000\000\000\b\017\000\000\000\000\000\000\b\017\000\000\000\000\000\000\b\000\000\000\000\000\000\000\001\000\000\000\006\000\000\000\000\000\000\000\000\000\000\000\000\000\000\000\000\000\000\000\000\000\000\000\000\000\000\000\000\000\000\000\000\000\000\000\000\000\000\000\000\000\000\000\b\000\000\000\000\000\000"
	.size	stencil_3d27pt_box_kernel_gpubin_cst, 6824

	.section	".note.GNU-stack","",@progbits